   1              		.cpu arm7tdmi
   2              		.fpu softvfp
   3              		.eabi_attribute 20, 1
   4              		.eabi_attribute 21, 1
   5              		.eabi_attribute 23, 3
   6              		.eabi_attribute 24, 1
   7              		.eabi_attribute 25, 1
   8              		.eabi_attribute 26, 1
   9              		.eabi_attribute 30, 6
  10              		.eabi_attribute 18, 4
  11              		.file	"proyecto.c"
  21              	.Ltext0:
  22              		.file 1 "../proyecto.c"
 2205              		.align	2
 2206              		.global	main
 2208              	main:
 2209              	.LFB0:
   1:../proyecto.c **** /*-------------------------------------------------------------------
   2:../proyecto.c **** **
   3:../proyecto.c **** **  Aplicacion demo bajo un kernel de planificacion no expropiativo
   4:../proyecto.c **** 
   5:../proyecto.c **** ** Proyecto desarrollado por Guillermo Lemonnier y Lucas Arranz,
   6:../proyecto.c **** **
   7:../proyecto.c **** ** basado en la demo inicial desarrollada por el profesor José Manuel Mendías Cuadros
   8:../proyecto.c **** **
   9:../proyecto.c **** **
  10:../proyecto.c **** **-----------------------------------------------------------------*/
  11:../proyecto.c **** #include "proyecto.h"
  12:../proyecto.c **** #include "pantalla.h"
  13:../proyecto.c **** /////////////////////////////////////////////////////////////////////////////
  14:../proyecto.c **** // Declaracion de recursos
  15:../proyecto.c **** /////////////////////////////////////////////////////////////////////////////
  16:../proyecto.c **** 
  17:../proyecto.c **** parking_t parking[MAXPLACES];
  18:../proyecto.c **** 
  19:../proyecto.c **** struct mbox1 {                /* mailbox donde la coinsAcceptorTask indica a mainTask la moneda int
  20:../proyecto.c ****     boolean flag;
  21:../proyecto.c ****     boolean licPlateInput;
  22:../proyecto.c ****     uint8   cents;
  23:../proyecto.c ****     uint8  keyPress;
  24:../proyecto.c **** } kpPressedMsg;
  25:../proyecto.c **** 
  26:../proyecto.c **** struct mbox2 {                /* mailbox donde la tsScanTask indica a mainTask la posicion de la pa
  27:../proyecto.c ****     boolean flag, langFlag;
  28:../proyecto.c ****     uint16  x, y;
  29:../proyecto.c **** } tsPressedMsg;
  30:../proyecto.c **** 
  31:../proyecto.c **** struct mbox3 {                 /* mailbox donde la mainTask indica a coinsMoverTask si debe aceptar
  32:../proyecto.c ****     boolean flag;
  33:../proyecto.c ****     boolean accept;
  34:../proyecto.c **** } coinsMoverMsg;
  35:../proyecto.c **** 
  36:../proyecto.c **** 
  37:../proyecto.c **** struct mbox5{
  38:../proyecto.c **** 	boolean flag;	  /* mailbox donde la mainTask indica a ticketPrintTask que imprima un ticket */
  39:../proyecto.c **** 	parking_t place;
  40:../proyecto.c **** }ticketMsg;
  41:../proyecto.c **** 
  42:../proyecto.c **** 
  43:../proyecto.c **** 
  44:../proyecto.c **** /*******************************************************************/
  45:../proyecto.c **** 
  46:../proyecto.c **** void main( void )
  47:../proyecto.c **** 
  48:../proyecto.c **** {
 2210              		.loc 1 48 0
 2211              		.cfi_startproc
 2212              		@ Function supports interworking.
 2213              		@ args = 0, pretend = 0, frame = 0
 2214              		@ frame_needed = 1, uses_anonymous_args = 0
 2215 0000 0DC0A0E1 		mov	ip, sp
 2216              	.LCFI0:
 2217              		.cfi_def_cfa_register 12
 2218 0004 00D82DE9 		stmfd	sp!, {fp, ip, lr, pc}
 2219 0008 04B04CE2 		sub	fp, ip, #4
 2220              		.cfi_offset 14, -8
 2221              		.cfi_offset 13, -12
 2222              		.cfi_offset 11, -16
 2223              	.LCFI1:
 2224              		.cfi_def_cfa 11, 4
  49:../proyecto.c ****     
  50:../proyecto.c ****     sys_init();      
 2225              		.loc 1 50 0
 2226 000c FEFFFFEB 		bl	sys_init
  51:../proyecto.c ****     leds_init();
 2227              		.loc 1 51 0
 2228 0010 FEFFFFEB 		bl	leds_init
  52:../proyecto.c ****     segs_init();
 2229              		.loc 1 52 0
 2230 0014 FEFFFFEB 		bl	segs_init
  53:../proyecto.c ****     uart0_init();
 2231              		.loc 1 53 0
 2232 0018 FEFFFFEB 		bl	uart0_init
  54:../proyecto.c ****     rtc_init();
 2233              		.loc 1 54 0
 2234 001c FEFFFFEB 		bl	rtc_init
  55:../proyecto.c ****     timers_init();
 2235              		.loc 1 55 0
 2236 0020 FEFFFFEB 		bl	timers_init
  56:../proyecto.c ****     keypad_init();
 2237              		.loc 1 56 0
 2238 0024 FEFFFFEB 		bl	keypad_init
  57:../proyecto.c ****     lcd_init();
 2239              		.loc 1 57 0
 2240 0028 FEFFFFEB 		bl	lcd_init
  58:../proyecto.c ****     ts_init();
 2241              		.loc 1 58 0
 2242 002c FEFFFFEB 		bl	ts_init
  59:../proyecto.c **** 
  60:../proyecto.c ****     lcd_on();
 2243              		.loc 1 60 0
 2244 0030 FEFFFFEB 		bl	lcd_on
  61:../proyecto.c ****     ts_on();
 2245              		.loc 1 61 0
 2246 0034 FEFFFFEB 		bl	ts_on
  62:../proyecto.c **** 
  63:../proyecto.c ****     setup();
 2247              		.loc 1 63 0
 2248 0038 FEFFFFEB 		bl	setup
  64:../proyecto.c **** 
  65:../proyecto.c ****     scheduler_init();                       /* Inicializa el kernel */
 2249              		.loc 1 65 0
 2250 003c FEFFFFEB 		bl	scheduler_init
  66:../proyecto.c **** 
  67:../proyecto.c ****     create_task( tsScanTask,          5 );    /* Crea las tareas de la aplicacion... */
 2251              		.loc 1 67 0
 2252 0040 58009FE5 		ldr	r0, .L3
 2253 0044 0510A0E3 		mov	r1, #5
 2254 0048 FEFFFFEB 		bl	create_task
  68:../proyecto.c ****     create_task( kpScanTask,   5 );    /* ... el kernel asigna la prioridad segun orden de creacion
 2255              		.loc 1 68 0
 2256 004c 50009FE5 		ldr	r0, .L3+4
 2257 0050 0510A0E3 		mov	r1, #5
 2258 0054 FEFFFFEB 		bl	create_task
  69:../proyecto.c ****     create_task( mainTask,           10 );    /* ... las tareas mas frecuentes tienen mayor priorid
 2259              		.loc 1 69 0
 2260 0058 48009FE5 		ldr	r0, .L3+8
 2261 005c 0A10A0E3 		mov	r1, #10
 2262 0060 FEFFFFEB 		bl	create_task
  70:../proyecto.c ****     create_task( coinsMoverTask,     10 );
 2263              		.loc 1 70 0
 2264 0064 40009FE5 		ldr	r0, .L3+12
 2265 0068 0A10A0E3 		mov	r1, #10
 2266 006c FEFFFFEB 		bl	create_task
  71:../proyecto.c ****     create_task( clockTask,          10 );
 2267              		.loc 1 71 0
 2268 0070 38009FE5 		ldr	r0, .L3+16
 2269 0074 0A10A0E3 		mov	r1, #10
 2270 0078 FEFFFFEB 		bl	create_task
  72:../proyecto.c ****     create_task( ticketPrinterTask,  10 );
 2271              		.loc 1 72 0
 2272 007c 30009FE5 		ldr	r0, .L3+20
 2273 0080 0A10A0E3 		mov	r1, #10
 2274 0084 FEFFFFEB 		bl	create_task
  73:../proyecto.c **** 
  74:../proyecto.c ****     timer0_open_tick( scheduler, TICKS_PER_SEC );  /* Instala scheduler como RTI del timer0  */
 2275              		.loc 1 74 0
 2276 0088 28009FE5 		ldr	r0, .L3+24
 2277 008c 6410A0E3 		mov	r1, #100
 2278 0090 FEFFFFEB 		bl	timer0_open_tick
 2279              	.L2:
  75:../proyecto.c **** 
  76:../proyecto.c ****     while( 1 )
  77:../proyecto.c ****     {
  78:../proyecto.c ****         sleep();                /* Entra en estado IDLE, sale por interrupcion */
 2280              		.loc 1 78 0 discriminator 1
 2281 0094 FEFFFFEB 		bl	sleep
  79:../proyecto.c ****         dispacher();            /* Las tareas preparadas se ejecutan en esta hebra (background) en 
 2282              		.loc 1 79 0 discriminator 1
 2283 0098 FEFFFFEB 		bl	dispacher
  80:../proyecto.c ****     }
 2284              		.loc 1 80 0 discriminator 1
 2285 009c FCFFFFEA 		b	.L2
 2286              	.L4:
 2287              		.align	2
 2288              	.L3:
 2289 00a0 00000000 		.word	tsScanTask
 2290 00a4 00000000 		.word	kpScanTask
 2291 00a8 00000000 		.word	mainTask
 2292 00ac 00000000 		.word	coinsMoverTask
 2293 00b0 00000000 		.word	clockTask
 2294 00b4 00000000 		.word	ticketPrinterTask
 2295 00b8 00000000 		.word	scheduler
 2296              		.cfi_endproc
 2297              	.LFE0:
 2299              		.align	2
 2300              		.global	mainTask
 2302              	mainTask:
 2303              	.LFB1:
  81:../proyecto.c **** 
  82:../proyecto.c **** }
  83:../proyecto.c **** 
  84:../proyecto.c **** /*******************************************************************/
  85:../proyecto.c **** 
  86:../proyecto.c **** /* 
  87:../proyecto.c **** ** Tarea principal, se activa cada 100 ms muestreando los mensajes enviados de otras tareas y actua
  88:../proyecto.c **** */
  89:../proyecto.c **** void mainTask( void )  
  90:../proyecto.c **** {
 2304              		.loc 1 90 0
 2305              		.cfi_startproc
 2306              		@ Function supports interworking.
 2307              		@ args = 0, pretend = 0, frame = 8
 2308              		@ frame_needed = 1, uses_anonymous_args = 0
 2309 00bc 0DC0A0E1 		mov	ip, sp
 2310              	.LCFI2:
 2311              		.cfi_def_cfa_register 12
 2312 00c0 00D82DE9 		stmfd	sp!, {fp, ip, lr, pc}
 2313 00c4 04B04CE2 		sub	fp, ip, #4
 2314              		.cfi_offset 14, -8
 2315              		.cfi_offset 13, -12
 2316              		.cfi_offset 11, -16
 2317              	.LCFI3:
 2318              		.cfi_def_cfa 11, 4
 2319 00c8 08D04DE2 		sub	sp, sp, #8
  91:../proyecto.c ****     static boolean init = TRUE;
  92:../proyecto.c ****     static uint16 ticks, licPlateComp;
  93:../proyecto.c ****     static uint8 placeSelected;
  94:../proyecto.c ****     static rtc_time_t og_deadline;
  95:../proyecto.c ****     static state_t state, prevState;
  96:../proyecto.c **** 
  97:../proyecto.c ****     if( init )
 2320              		.loc 1 97 0
 2321 00cc 843D9FE5 		ldr	r3, .L69
 2322 00d0 0030D3E5 		ldrb	r3, [r3, #0]	@ zero_extendqisi2
 2323 00d4 000053E3 		cmp	r3, #0
 2324 00d8 3B00000A 		beq	.L6
 2325              	.LBB2:
  98:../proyecto.c ****     {
  99:../proyecto.c ****         init   = FALSE;
 2326              		.loc 1 99 0
 2327 00dc 743D9FE5 		ldr	r3, .L69
 2328 00e0 0020A0E3 		mov	r2, #0
 2329 00e4 0020C3E5 		strb	r2, [r3, #0]
 100:../proyecto.c ****         init_screen_mens();
 2330              		.loc 1 100 0
 2331 00e8 FEFFFFEB 		bl	init_screen_mens
 101:../proyecto.c ****         plotWelcomeScreen();
 2332              		.loc 1 101 0
 2333 00ec FEFFFFEB 		bl	plotWelcomeScreen
 102:../proyecto.c ****         int i;
 103:../proyecto.c ****         for(i = 0; i < MAXPLACES; i++)
 2334              		.loc 1 103 0
 2335 00f0 0030A0E3 		mov	r3, #0
 2336 00f4 10300BE5 		str	r3, [fp, #-16]
 2337 00f8 290000EA 		b	.L7
 2338              	.L8:
 104:../proyecto.c ****         {
 105:../proyecto.c ****         	parking[i].id = i+1;
 2339              		.loc 1 105 0 discriminator 2
 2340 00fc 10301BE5 		ldr	r3, [fp, #-16]
 2341 0100 FF3003E2 		and	r3, r3, #255
 2342 0104 013083E2 		add	r3, r3, #1
 2343 0108 FF1003E2 		and	r1, r3, #255
 2344 010c 583D9FE5 		ldr	r3, .L69+20
 2345 0110 10201BE5 		ldr	r2, [fp, #-16]
 2346 0114 0212C3E7 		strb	r1, [r3, r2, asl #4]
 106:../proyecto.c ****         	parking[i].free = TRUE;
 2347              		.loc 1 106 0 discriminator 2
 2348 0118 4C1D9FE5 		ldr	r1, .L69+20
 2349 011c 10201BE5 		ldr	r2, [fp, #-16]
 2350 0120 0130A0E3 		mov	r3, #1
 2351 0124 0222A0E1 		mov	r2, r2, asl #4
 2352 0128 022081E0 		add	r2, r1, r2
 2353 012c 033082E0 		add	r3, r2, r3
 2354 0130 0120A0E3 		mov	r2, #1
 2355 0134 0020C3E5 		strb	r2, [r3, #0]
 107:../proyecto.c ****         	parking[i].licPlate = 0;
 2356              		.loc 1 107 0 discriminator 2
 2357 0138 2C1D9FE5 		ldr	r1, .L69+20
 2358 013c 10201BE5 		ldr	r2, [fp, #-16]
 2359 0140 0830A0E3 		mov	r3, #8
 2360 0144 0222A0E1 		mov	r2, r2, asl #4
 2361 0148 022081E0 		add	r2, r1, r2
 2362 014c 033082E0 		add	r3, r2, r3
 2363 0150 0020A0E3 		mov	r2, #0
 2364 0154 B220C3E1 		strh	r2, [r3, #2]	@ movhi
 108:../proyecto.c ****         	parking[i].credit = 0;
 2365              		.loc 1 108 0 discriminator 2
 2366 0158 0C1D9FE5 		ldr	r1, .L69+20
 2367 015c 10201BE5 		ldr	r2, [fp, #-16]
 2368 0160 0830A0E3 		mov	r3, #8
 2369 0164 0222A0E1 		mov	r2, r2, asl #4
 2370 0168 022081E0 		add	r2, r1, r2
 2371 016c 033082E0 		add	r3, r2, r3
 2372 0170 0020A0E3 		mov	r2, #0
 2373 0174 B420C3E1 		strh	r2, [r3, #4]	@ movhi
 109:../proyecto.c ****         	parking[i].error = 0;
 2374              		.loc 1 109 0 discriminator 2
 2375 0178 EC1C9FE5 		ldr	r1, .L69+20
 2376 017c 10201BE5 		ldr	r2, [fp, #-16]
 2377 0180 0830A0E3 		mov	r3, #8
 2378 0184 0222A0E1 		mov	r2, r2, asl #4
 2379 0188 022081E0 		add	r2, r1, r2
 2380 018c 033082E0 		add	r3, r2, r3
 2381 0190 0020A0E3 		mov	r2, #0
 2382 0194 0620C3E5 		strb	r2, [r3, #6]
 103:../proyecto.c ****         for(i = 0; i < MAXPLACES; i++)
 2383              		.loc 1 103 0 discriminator 2
 2384 0198 10301BE5 		ldr	r3, [fp, #-16]
 2385 019c 013083E2 		add	r3, r3, #1
 2386 01a0 10300BE5 		str	r3, [fp, #-16]
 2387              	.L7:
 103:../proyecto.c ****         for(i = 0; i < MAXPLACES; i++)
 2388              		.loc 1 103 0 is_stmt 0 discriminator 1
 2389 01a4 10301BE5 		ldr	r3, [fp, #-16]
 2390 01a8 070053E3 		cmp	r3, #7
 2391 01ac D2FFFFDA 		ble	.L8
 110:../proyecto.c ****         }
 111:../proyecto.c ****         placeSelected = 0; //	valor para inicializar la variable se sobreescribirá antes de ser rel
 2392              		.loc 1 111 0 is_stmt 1
 2393 01b0 B83C9FE5 		ldr	r3, .L69+24
 2394 01b4 0020A0E3 		mov	r2, #0
 2395 01b8 0020C3E5 		strb	r2, [r3, #0]
 112:../proyecto.c ****         state = waiting;
 2396              		.loc 1 112 0
 2397 01bc C03C9FE5 		ldr	r3, .L69+44
 2398 01c0 0120A0E3 		mov	r2, #1
 2399 01c4 0020C3E5 		strb	r2, [r3, #0]
 2400 01c8 400400EA 		b	.L5
 2401              	.L6:
 2402              	.LBE2:
 113:../proyecto.c ****     }
 114:../proyecto.c ****     else switch( state )
 2403              		.loc 1 114 0
 2404 01cc B03C9FE5 		ldr	r3, .L69+44
 2405 01d0 0030D3E5 		ldrb	r3, [r3, #0]	@ zero_extendqisi2
 2406 01d4 070053E3 		cmp	r3, #7
 2407 01d8 03F19F97 		ldrls	pc, [pc, r3, asl #2]
 2408 01dc 3B0400EA 		b	.L5
 2409              	.L18:
 2410 01e0 00020000 		.word	.L10
 2411 01e4 2C030000 		.word	.L11
 2412 01e8 1C040000 		.word	.L12
 2413 01ec 44060000 		.word	.L13
 2414 01f0 9C0A0000 		.word	.L14
 2415 01f4 180D0000 		.word	.L15
 2416 01f8 880E0000 		.word	.L16
 2417 01fc 20100000 		.word	.L17
 2418              	.L10:
 115:../proyecto.c ****     {
 116:../proyecto.c ****     	case language:
 117:../proyecto.c ****     		if( !(--ticks) )                           /* Decrementa ticks y chequea si ha permanecido en
 2419              		.loc 1 117 0
 2420 0200 6C3C9FE5 		ldr	r3, .L69+28
 2421 0204 B030D3E1 		ldrh	r3, [r3, #0]
 2422 0208 013043E2 		sub	r3, r3, #1
 2423 020c 0338A0E1 		mov	r3, r3, asl #16
 2424 0210 2328A0E1 		mov	r2, r3, lsr #16
 2425 0214 583C9FE5 		ldr	r3, .L69+28
 2426 0218 B020C3E1 		strh	r2, [r3, #0]	@ movhi
 2427 021c 503C9FE5 		ldr	r3, .L69+28
 2428 0220 B030D3E1 		ldrh	r3, [r3, #0]
 2429 0224 000053E3 		cmp	r3, #0
 2430 0228 0700001A 		bne	.L19
 118:../proyecto.c **** 			{
 119:../proyecto.c **** 				plotState(waiting,placeSelected);                     /* Visualiza pantalla inicial */
 2431              		.loc 1 119 0
 2432 022c 3C3C9FE5 		ldr	r3, .L69+24
 2433 0230 0030D3E5 		ldrb	r3, [r3, #0]	@ zero_extendqisi2
 2434 0234 0100A0E3 		mov	r0, #1
 2435 0238 0310A0E1 		mov	r1, r3
 2436 023c FEFFFFEB 		bl	plotState
 120:../proyecto.c **** 				state = waiting;                      /* Salta al estado demo_waiting */
 2437              		.loc 1 120 0
 2438 0240 3C3C9FE5 		ldr	r3, .L69+44
 2439 0244 0120A0E3 		mov	r2, #1
 2440 0248 0020C3E5 		strb	r2, [r3, #0]
 2441              	.L19:
 121:../proyecto.c **** 			}
 122:../proyecto.c ****     		if( tsPressedMsg.flag && !tsPressedMsg.langFlag )                    /* Chequea si se ha puls
 2442              		.loc 1 122 0
 2443 024c 283C9FE5 		ldr	r3, .L69+36
 2444 0250 0030D3E5 		ldrb	r3, [r3, #0]	@ zero_extendqisi2
 2445 0254 000053E3 		cmp	r3, #0
 2446 0258 1800000A 		beq	.L20
 2447              		.loc 1 122 0 is_stmt 0 discriminator 1
 2448 025c 183C9FE5 		ldr	r3, .L69+36
 2449 0260 0130D3E5 		ldrb	r3, [r3, #1]	@ zero_extendqisi2
 2450 0264 000053E3 		cmp	r3, #0
 2451 0268 1400001A 		bne	.L20
 123:../proyecto.c **** 			{
 124:../proyecto.c **** 				tsPressedMsg.flag = FALSE;                 /* Marca el mensaje como leido */
 2452              		.loc 1 124 0 is_stmt 1
 2453 026c 083C9FE5 		ldr	r3, .L69+36
 2454 0270 0020A0E3 		mov	r2, #0
 2455 0274 0020C3E5 		strb	r2, [r3, #0]
 125:../proyecto.c **** 				if( changeLang() > 0)
 2456              		.loc 1 125 0
 2457 0278 FEFFFFEB 		bl	changeLang
 2458 027c 0030A0E1 		mov	r3, r0
 2459 0280 000053E3 		cmp	r3, #0
 2460 0284 0A0000DA 		ble	.L21
 126:../proyecto.c **** 				{									/* Borra pantalla */
 127:../proyecto.c **** 					plotState(prevState, placeSelected);
 2461              		.loc 1 127 0
 2462 0288 F03B9FE5 		ldr	r3, .L69+40
 2463 028c 0020D3E5 		ldrb	r2, [r3, #0]	@ zero_extendqisi2
 2464 0290 D83B9FE5 		ldr	r3, .L69+24
 2465 0294 0030D3E5 		ldrb	r3, [r3, #0]	@ zero_extendqisi2
 2466 0298 0200A0E1 		mov	r0, r2
 2467 029c 0310A0E1 		mov	r1, r3
 2468 02a0 FEFFFFEB 		bl	plotState
 128:../proyecto.c **** 					state = prevState;                  /* Salta al estado previo ... */
 2469              		.loc 1 128 0
 2470 02a4 D43B9FE5 		ldr	r3, .L69+40
 2471 02a8 0020D3E5 		ldrb	r2, [r3, #0]	@ zero_extendqisi2
 2472 02ac D03B9FE5 		ldr	r3, .L69+44
 2473 02b0 0020C3E5 		strb	r2, [r3, #0]
 2474              	.L21:
 129:../proyecto.c **** 				}
 130:../proyecto.c **** 				ticks = 500;                               /* ... en el que debera permanecer un maximo de 500 
 2475              		.loc 1 130 0
 2476 02b4 B83B9FE5 		ldr	r3, .L69+28
 2477 02b8 7D2FA0E3 		mov	r2, #500
 2478 02bc B020C3E1 		strh	r2, [r3, #0]	@ movhi
 2479              	.L20:
 131:../proyecto.c **** 			}
 132:../proyecto.c ****     		if ( tsPressedMsg.langFlag )
 2480              		.loc 1 132 0
 2481 02c0 B43B9FE5 		ldr	r3, .L69+36
 2482 02c4 0130D3E5 		ldrb	r3, [r3, #1]	@ zero_extendqisi2
 2483 02c8 000053E3 		cmp	r3, #0
 2484 02cc 0800000A 		beq	.L22
 133:../proyecto.c ****     		{
 134:../proyecto.c ****     			tsPressedMsg.flag = FALSE;
 2485              		.loc 1 134 0
 2486 02d0 A43B9FE5 		ldr	r3, .L69+36
 2487 02d4 0020A0E3 		mov	r2, #0
 2488 02d8 0020C3E5 		strb	r2, [r3, #0]
 135:../proyecto.c ****     			tsPressedMsg.langFlag = FALSE;
 2489              		.loc 1 135 0
 2490 02dc 983B9FE5 		ldr	r3, .L69+36
 2491 02e0 0020A0E3 		mov	r2, #0
 2492 02e4 0120C3E5 		strb	r2, [r3, #1]
 136:../proyecto.c ****     			state = language;
 2493              		.loc 1 136 0
 2494 02e8 943B9FE5 		ldr	r3, .L69+44
 2495 02ec 0020A0E3 		mov	r2, #0
 2496 02f0 0020C3E5 		strb	r2, [r3, #0]
 2497              	.L22:
 137:../proyecto.c ****     		}
 138:../proyecto.c **** 			if( kpPressedMsg.flag )                /* Chequea si se ha introducido una moneda (mensaje recib
 2498              		.loc 1 138 0
 2499 02f4 7C3B9FE5 		ldr	r3, .L69+32
 2500 02f8 0030D3E5 		ldrb	r3, [r3, #0]	@ zero_extendqisi2
 2501 02fc 000053E3 		cmp	r3, #0
 2502 0300 E503000A 		beq	.L62
 139:../proyecto.c **** 			{
 140:../proyecto.c **** 				kpPressedMsg.flag = FALSE;              /* Marca el mensaje como leido */
 2503              		.loc 1 140 0
 2504 0304 6C3B9FE5 		ldr	r3, .L69+32
 2505 0308 0020A0E3 		mov	r2, #0
 2506 030c 0020C3E5 		strb	r2, [r3, #0]
 141:../proyecto.c **** 				coinsMoverMsg.accept = FALSE;              /* Envia un mensaje para que la moneda se devuelva *
 2507              		.loc 1 141 0
 2508 0310 4C3B9FE5 		ldr	r3, .L69+12
 2509 0314 0020A0E3 		mov	r2, #0
 2510 0318 0120C3E5 		strb	r2, [r3, #1]
 142:../proyecto.c **** 				coinsMoverMsg.flag   = TRUE;
 2511              		.loc 1 142 0
 2512 031c 403B9FE5 		ldr	r3, .L69+12
 2513 0320 0120A0E3 		mov	r2, #1
 2514 0324 0020C3E5 		strb	r2, [r3, #0]
 143:../proyecto.c **** 			}
 144:../proyecto.c **** 			break;
 2515              		.loc 1 144 0
 2516 0328 E80300EA 		b	.L5
 2517              	.L11:
 145:../proyecto.c ****         case waiting:                        /* Estado en donde rechaza monedas y espera la pulsaci
 146:../proyecto.c ****             if( tsPressedMsg.flag && !tsPressedMsg.langFlag )                    /* Chequea si se h
 2518              		.loc 1 146 0
 2519 032c 483B9FE5 		ldr	r3, .L69+36
 2520 0330 0030D3E5 		ldrb	r3, [r3, #0]	@ zero_extendqisi2
 2521 0334 000053E3 		cmp	r3, #0
 2522 0338 1100000A 		beq	.L24
 2523              		.loc 1 146 0 is_stmt 0 discriminator 1
 2524 033c 383B9FE5 		ldr	r3, .L69+36
 2525 0340 0130D3E5 		ldrb	r3, [r3, #1]	@ zero_extendqisi2
 2526 0344 000053E3 		cmp	r3, #0
 2527 0348 0D00001A 		bne	.L24
 147:../proyecto.c ****             {
 148:../proyecto.c ****                 tsPressedMsg.flag = FALSE;                 /* Marca el mensaje como leido */
 2528              		.loc 1 148 0 is_stmt 1
 2529 034c 283B9FE5 		ldr	r3, .L69+36
 2530 0350 0020A0E3 		mov	r2, #0
 2531 0354 0020C3E5 		strb	r2, [r3, #0]
 149:../proyecto.c ****                 plotState(selection,placeSelected);
 2532              		.loc 1 149 0
 2533 0358 103B9FE5 		ldr	r3, .L69+24
 2534 035c 0030D3E5 		ldrb	r3, [r3, #0]	@ zero_extendqisi2
 2535 0360 0200A0E3 		mov	r0, #2
 2536 0364 0310A0E1 		mov	r1, r3
 2537 0368 FEFFFFEB 		bl	plotState
 150:../proyecto.c ****                 state = selection;                  /* Salta al estado selection ... */
 2538              		.loc 1 150 0
 2539 036c 103B9FE5 		ldr	r3, .L69+44
 2540 0370 0220A0E3 		mov	r2, #2
 2541 0374 0020C3E5 		strb	r2, [r3, #0]
 151:../proyecto.c ****                 ticks = 1000;                               /* ... en el que debera permanecer un m
 2542              		.loc 1 151 0
 2543 0378 F43A9FE5 		ldr	r3, .L69+28
 2544 037c FA2FA0E3 		mov	r2, #1000
 2545 0380 B020C3E1 		strh	r2, [r3, #0]	@ movhi
 2546              	.L24:
 152:../proyecto.c ****             }
 153:../proyecto.c ****             if ( tsPressedMsg.langFlag )
 2547              		.loc 1 153 0
 2548 0384 F03A9FE5 		ldr	r3, .L69+36
 2549 0388 0130D3E5 		ldrb	r3, [r3, #1]	@ zero_extendqisi2
 2550 038c 000053E3 		cmp	r3, #0
 2551 0390 1000000A 		beq	.L25
 154:../proyecto.c **** 			{
 155:../proyecto.c **** 				tsPressedMsg.flag = FALSE;
 2552              		.loc 1 155 0
 2553 0394 E03A9FE5 		ldr	r3, .L69+36
 2554 0398 0020A0E3 		mov	r2, #0
 2555 039c 0020C3E5 		strb	r2, [r3, #0]
 156:../proyecto.c **** 				tsPressedMsg.langFlag = FALSE;
 2556              		.loc 1 156 0
 2557 03a0 D43A9FE5 		ldr	r3, .L69+36
 2558 03a4 0020A0E3 		mov	r2, #0
 2559 03a8 0120C3E5 		strb	r2, [r3, #1]
 157:../proyecto.c **** 				prevState = waiting;
 2560              		.loc 1 157 0
 2561 03ac CC3A9FE5 		ldr	r3, .L69+40
 2562 03b0 0120A0E3 		mov	r2, #1
 2563 03b4 0020C3E5 		strb	r2, [r3, #0]
 158:../proyecto.c **** 				plotState(language, placeSelected);
 2564              		.loc 1 158 0
 2565 03b8 B03A9FE5 		ldr	r3, .L69+24
 2566 03bc 0030D3E5 		ldrb	r3, [r3, #0]	@ zero_extendqisi2
 2567 03c0 0000A0E3 		mov	r0, #0
 2568 03c4 0310A0E1 		mov	r1, r3
 2569 03c8 FEFFFFEB 		bl	plotState
 159:../proyecto.c **** 				state = language;
 2570              		.loc 1 159 0
 2571 03cc B03A9FE5 		ldr	r3, .L69+44
 2572 03d0 0020A0E3 		mov	r2, #0
 2573 03d4 0020C3E5 		strb	r2, [r3, #0]
 2574              	.L25:
 160:../proyecto.c **** 			}
 161:../proyecto.c ****             if( kpPressedMsg.flag )                /* Chequea si se ha introducido una moneda (mens
 2575              		.loc 1 161 0
 2576 03d8 983A9FE5 		ldr	r3, .L69+32
 2577 03dc 0030D3E5 		ldrb	r3, [r3, #0]	@ zero_extendqisi2
 2578 03e0 000053E3 		cmp	r3, #0
 2579 03e4 AE03000A 		beq	.L63
 162:../proyecto.c ****             {
 163:../proyecto.c ****                 kpPressedMsg.flag = FALSE;              /* Marca el mensaje como leido */
 2580              		.loc 1 163 0
 2581 03e8 883A9FE5 		ldr	r3, .L69+32
 2582 03ec 0020A0E3 		mov	r2, #0
 2583 03f0 0020C3E5 		strb	r2, [r3, #0]
 164:../proyecto.c ****                 coinsMoverMsg.accept = FALSE;              /* Envia un mensaje para que la moneda s
 2584              		.loc 1 164 0
 2585 03f4 683A9FE5 		ldr	r3, .L69+12
 2586 03f8 0020A0E3 		mov	r2, #0
 2587 03fc 0120C3E5 		strb	r2, [r3, #1]
 165:../proyecto.c ****                 coinsMoverMsg.flag   = TRUE;
 2588              		.loc 1 165 0
 2589 0400 5C3A9FE5 		ldr	r3, .L69+12
 2590 0404 0120A0E3 		mov	r2, #1
 2591 0408 0020C3E5 		strb	r2, [r3, #0]
 166:../proyecto.c ****                 ticks = 500;
 2592              		.loc 1 166 0
 2593 040c 603A9FE5 		ldr	r3, .L69+28
 2594 0410 7D2FA0E3 		mov	r2, #500
 2595 0414 B020C3E1 		strh	r2, [r3, #0]	@ movhi
 167:../proyecto.c ****             }    
 168:../proyecto.c ****             break;
 2596              		.loc 1 168 0
 2597 0418 AC0300EA 		b	.L5
 2598              	.L12:
 169:../proyecto.c ****         case selection:
 170:../proyecto.c ****         	if( !(--ticks) )                           /* Decrementa ticks y chequea si ha permanecido
 2599              		.loc 1 170 0
 2600 041c 503A9FE5 		ldr	r3, .L69+28
 2601 0420 B030D3E1 		ldrh	r3, [r3, #0]
 2602 0424 013043E2 		sub	r3, r3, #1
 2603 0428 0338A0E1 		mov	r3, r3, asl #16
 2604 042c 2328A0E1 		mov	r2, r3, lsr #16
 2605 0430 3C3A9FE5 		ldr	r3, .L69+28
 2606 0434 B020C3E1 		strh	r2, [r3, #0]	@ movhi
 2607 0438 343A9FE5 		ldr	r3, .L69+28
 2608 043c B030D3E1 		ldrh	r3, [r3, #0]
 2609 0440 000053E3 		cmp	r3, #0
 2610 0444 0700001A 		bne	.L27
 171:../proyecto.c **** 			{
 172:../proyecto.c **** 				plotState(waiting,placeSelected);                      /* Visualiza pantalla inicial */
 2611              		.loc 1 172 0
 2612 0448 203A9FE5 		ldr	r3, .L69+24
 2613 044c 0030D3E5 		ldrb	r3, [r3, #0]	@ zero_extendqisi2
 2614 0450 0100A0E3 		mov	r0, #1
 2615 0454 0310A0E1 		mov	r1, r3
 2616 0458 FEFFFFEB 		bl	plotState
 173:../proyecto.c **** 				state = waiting;                      /* Salta al estado demo_waiting */
 2617              		.loc 1 173 0
 2618 045c 203A9FE5 		ldr	r3, .L69+44
 2619 0460 0120A0E3 		mov	r2, #1
 2620 0464 0020C3E5 		strb	r2, [r3, #0]
 2621              	.L27:
 174:../proyecto.c **** 			}
 175:../proyecto.c ****         	if( kpPressedMsg.flag )                /* Chequea si se ha introducido una moneda (mensaje
 2622              		.loc 1 175 0
 2623 0468 083A9FE5 		ldr	r3, .L69+32
 2624 046c 0030D3E5 		ldrb	r3, [r3, #0]	@ zero_extendqisi2
 2625 0470 000053E3 		cmp	r3, #0
 2626 0474 0800000A 		beq	.L28
 176:../proyecto.c **** 			{
 177:../proyecto.c **** 				kpPressedMsg.flag = FALSE;              /* Marca el mensaje como leido */
 2627              		.loc 1 177 0
 2628 0478 F8399FE5 		ldr	r3, .L69+32
 2629 047c 0020A0E3 		mov	r2, #0
 2630 0480 0020C3E5 		strb	r2, [r3, #0]
 178:../proyecto.c **** 				coinsMoverMsg.accept = FALSE;              /* Envia un mensaje para que la moneda se devuelva *
 2631              		.loc 1 178 0
 2632 0484 D8399FE5 		ldr	r3, .L69+12
 2633 0488 0020A0E3 		mov	r2, #0
 2634 048c 0120C3E5 		strb	r2, [r3, #1]
 179:../proyecto.c **** 				coinsMoverMsg.flag   = TRUE;
 2635              		.loc 1 179 0
 2636 0490 CC399FE5 		ldr	r3, .L69+12
 2637 0494 0120A0E3 		mov	r2, #1
 2638 0498 0020C3E5 		strb	r2, [r3, #0]
 2639              	.L28:
 180:../proyecto.c **** 			}
 181:../proyecto.c ****         	if( tsPressedMsg.flag && !tsPressedMsg.langFlag )
 2640              		.loc 1 181 0
 2641 049c D8399FE5 		ldr	r3, .L69+36
 2642 04a0 0030D3E5 		ldrb	r3, [r3, #0]	@ zero_extendqisi2
 2643 04a4 000053E3 		cmp	r3, #0
 2644 04a8 4F00000A 		beq	.L29
 2645              		.loc 1 181 0 is_stmt 0 discriminator 1
 2646 04ac C8399FE5 		ldr	r3, .L69+36
 2647 04b0 0130D3E5 		ldrb	r3, [r3, #1]	@ zero_extendqisi2
 2648 04b4 000053E3 		cmp	r3, #0
 2649 04b8 4B00001A 		bne	.L29
 182:../proyecto.c ****         	{
 183:../proyecto.c ****         		tsPressedMsg.flag = FALSE;                 /* Marca el mensaje como leido */
 2650              		.loc 1 183 0 is_stmt 1
 2651 04bc B8399FE5 		ldr	r3, .L69+36
 2652 04c0 0020A0E3 		mov	r2, #0
 2653 04c4 0020C3E5 		strb	r2, [r3, #0]
 184:../proyecto.c **** 				if(parking[(placeSelected = selectorTask())].free) //si se selecciona una plaza disponible vamo
 2654              		.loc 1 184 0
 2655 04c8 FEFFFFEB 		bl	selectorTask
 2656 04cc 0030A0E1 		mov	r3, r0
 2657 04d0 FF2003E2 		and	r2, r3, #255
 2658 04d4 94399FE5 		ldr	r3, .L69+24
 2659 04d8 0020C3E5 		strb	r2, [r3, #0]
 2660 04dc 8C399FE5 		ldr	r3, .L69+24
 2661 04e0 0030D3E5 		ldrb	r3, [r3, #0]	@ zero_extendqisi2
 2662 04e4 0320A0E1 		mov	r2, r3
 2663 04e8 7C199FE5 		ldr	r1, .L69+20
 2664 04ec 0130A0E3 		mov	r3, #1
 2665 04f0 0222A0E1 		mov	r2, r2, asl #4
 2666 04f4 022081E0 		add	r2, r1, r2
 2667 04f8 033082E0 		add	r3, r2, r3
 2668 04fc 0030D3E5 		ldrb	r3, [r3, #0]	@ zero_extendqisi2
 2669 0500 000053E3 		cmp	r3, #0
 2670 0504 1D00000A 		beq	.L30
 185:../proyecto.c **** 				{
 186:../proyecto.c **** 					rtc_gettime(&og_deadline);
 2671              		.loc 1 186 0
 2672 0508 4C099FE5 		ldr	r0, .L69+4
 2673 050c FEFFFFEB 		bl	rtc_gettime
 187:../proyecto.c **** 					parking[placeSelected].deadline = og_deadline;	//establecer la fecha inicial de la plaza
 2674              		.loc 1 187 0
 2675 0510 58399FE5 		ldr	r3, .L69+24
 2676 0514 0030D3E5 		ldrb	r3, [r3, #0]	@ zero_extendqisi2
 2677 0518 0320A0E1 		mov	r2, r3
 2678 051c 48199FE5 		ldr	r1, .L69+20
 2679 0520 0230A0E3 		mov	r3, #2
 2680 0524 0222A0E1 		mov	r2, r2, asl #4
 2681 0528 022081E0 		add	r2, r1, r2
 2682 052c 032082E0 		add	r2, r2, r3
 2683 0530 24399FE5 		ldr	r3, .L69+4
 2684 0534 0210A0E1 		mov	r1, r2
 2685 0538 0320A0E1 		mov	r2, r3
 2686 053c 0730A0E3 		mov	r3, #7
 2687 0540 0100A0E1 		mov	r0, r1
 2688 0544 0210A0E1 		mov	r1, r2
 2689 0548 0320A0E1 		mov	r2, r3
 2690 054c FEFFFFEB 		bl	memcpy
 188:../proyecto.c **** 					plotState(payment,placeSelected);
 2691              		.loc 1 188 0
 2692 0550 18399FE5 		ldr	r3, .L69+24
 2693 0554 0030D3E5 		ldrb	r3, [r3, #0]	@ zero_extendqisi2
 2694 0558 0300A0E3 		mov	r0, #3
 2695 055c 0310A0E1 		mov	r1, r3
 2696 0560 FEFFFFEB 		bl	plotState
 189:../proyecto.c **** 					state = payment;
 2697              		.loc 1 189 0
 2698 0564 18399FE5 		ldr	r3, .L69+44
 2699 0568 0320A0E3 		mov	r2, #3
 2700 056c 0020C3E5 		strb	r2, [r3, #0]
 190:../proyecto.c **** 					ticks = 500;
 2701              		.loc 1 190 0
 2702 0570 FC389FE5 		ldr	r3, .L69+28
 2703 0574 7D2FA0E3 		mov	r2, #500
 2704 0578 B020C3E1 		strh	r2, [r3, #0]	@ movhi
 2705 057c 1A0000EA 		b	.L29
 2706              	.L30:
 191:../proyecto.c **** 
 192:../proyecto.c **** 				} else if(placeSelected != 10){ // si no vamos a la pantalla de error
 2707              		.loc 1 192 0
 2708 0580 E8389FE5 		ldr	r3, .L69+24
 2709 0584 0030D3E5 		ldrb	r3, [r3, #0]	@ zero_extendqisi2
 2710 0588 0A0053E3 		cmp	r3, #10
 2711 058c 1500000A 		beq	.L31
 193:../proyecto.c **** 
 194:../proyecto.c **** 					parking[placeSelected].error = SELEC_ERROR;
 2712              		.loc 1 194 0
 2713 0590 D8389FE5 		ldr	r3, .L69+24
 2714 0594 0030D3E5 		ldrb	r3, [r3, #0]	@ zero_extendqisi2
 2715 0598 0320A0E1 		mov	r2, r3
 2716 059c C8189FE5 		ldr	r1, .L69+20
 2717 05a0 0830A0E3 		mov	r3, #8
 2718 05a4 0222A0E1 		mov	r2, r2, asl #4
 2719 05a8 022081E0 		add	r2, r1, r2
 2720 05ac 033082E0 		add	r3, r2, r3
 2721 05b0 0320A0E3 		mov	r2, #3
 2722 05b4 0620C3E5 		strb	r2, [r3, #6]
 195:../proyecto.c **** 					plotState(error,placeSelected);
 2723              		.loc 1 195 0
 2724 05b8 B0389FE5 		ldr	r3, .L69+24
 2725 05bc 0030D3E5 		ldrb	r3, [r3, #0]	@ zero_extendqisi2
 2726 05c0 0600A0E3 		mov	r0, #6
 2727 05c4 0310A0E1 		mov	r1, r3
 2728 05c8 FEFFFFEB 		bl	plotState
 196:../proyecto.c **** 					state = error;
 2729              		.loc 1 196 0
 2730 05cc B0389FE5 		ldr	r3, .L69+44
 2731 05d0 0620A0E3 		mov	r2, #6
 2732 05d4 0020C3E5 		strb	r2, [r3, #0]
 197:../proyecto.c **** 					ticks = 300;
 2733              		.loc 1 197 0
 2734 05d8 94389FE5 		ldr	r3, .L69+28
 2735 05dc 4B2FA0E3 		mov	r2, #300
 2736 05e0 B020C3E1 		strh	r2, [r3, #0]	@ movhi
 2737 05e4 000000EA 		b	.L29
 2738              	.L31:
 198:../proyecto.c **** 				} else {
 199:../proyecto.c **** 					plotSelEnc();
 2739              		.loc 1 199 0
 2740 05e8 FEFFFFEB 		bl	plotSelEnc
 2741              	.L29:
 200:../proyecto.c **** 				}
 201:../proyecto.c ****         	}
 202:../proyecto.c ****         	if ( tsPressedMsg.langFlag )
 2742              		.loc 1 202 0
 2743 05ec 88389FE5 		ldr	r3, .L69+36
 2744 05f0 0130D3E5 		ldrb	r3, [r3, #1]	@ zero_extendqisi2
 2745 05f4 000053E3 		cmp	r3, #0
 2746 05f8 2B03000A 		beq	.L64
 203:../proyecto.c **** 			{
 204:../proyecto.c **** 				tsPressedMsg.flag = FALSE;
 2747              		.loc 1 204 0
 2748 05fc 78389FE5 		ldr	r3, .L69+36
 2749 0600 0020A0E3 		mov	r2, #0
 2750 0604 0020C3E5 		strb	r2, [r3, #0]
 205:../proyecto.c **** 				tsPressedMsg.langFlag = FALSE;
 2751              		.loc 1 205 0
 2752 0608 6C389FE5 		ldr	r3, .L69+36
 2753 060c 0020A0E3 		mov	r2, #0
 2754 0610 0120C3E5 		strb	r2, [r3, #1]
 206:../proyecto.c **** 				prevState = state;
 2755              		.loc 1 206 0
 2756 0614 68389FE5 		ldr	r3, .L69+44
 2757 0618 0020D3E5 		ldrb	r2, [r3, #0]	@ zero_extendqisi2
 2758 061c 5C389FE5 		ldr	r3, .L69+40
 2759 0620 0020C3E5 		strb	r2, [r3, #0]
 207:../proyecto.c **** 				plotLangSelScreen();
 2760              		.loc 1 207 0
 2761 0624 FEFFFFEB 		bl	plotLangSelScreen
 208:../proyecto.c **** 				state = language;
 2762              		.loc 1 208 0
 2763 0628 54389FE5 		ldr	r3, .L69+44
 2764 062c 0020A0E3 		mov	r2, #0
 2765 0630 0020C3E5 		strb	r2, [r3, #0]
 209:../proyecto.c **** 				ticks = 500;
 2766              		.loc 1 209 0
 2767 0634 38389FE5 		ldr	r3, .L69+28
 2768 0638 7D2FA0E3 		mov	r2, #500
 2769 063c B020C3E1 		strh	r2, [r3, #0]	@ movhi
 210:../proyecto.c **** 			}
 211:../proyecto.c ****         	break;
 2770              		.loc 1 211 0
 2771 0640 220300EA 		b	.L5
 2772              	.L13:
 212:../proyecto.c ****         case payment:
 213:../proyecto.c ****         	if( !(--ticks) )                           /* Decrementa ticks y chequea si ha permanecido
 2773              		.loc 1 213 0
 2774 0644 28389FE5 		ldr	r3, .L69+28
 2775 0648 B030D3E1 		ldrh	r3, [r3, #0]
 2776 064c 013043E2 		sub	r3, r3, #1
 2777 0650 0338A0E1 		mov	r3, r3, asl #16
 2778 0654 2328A0E1 		mov	r2, r3, lsr #16
 2779 0658 14389FE5 		ldr	r3, .L69+28
 2780 065c B020C3E1 		strh	r2, [r3, #0]	@ movhi
 2781 0660 0C389FE5 		ldr	r3, .L69+28
 2782 0664 B030D3E1 		ldrh	r3, [r3, #0]
 2783 0668 000053E3 		cmp	r3, #0
 2784 066c 1700001A 		bne	.L33
 214:../proyecto.c **** 			{
 215:../proyecto.c ****         		plotState(waiting,placeSelected);                         /* Visualiza pantalla inicial *
 2785              		.loc 1 215 0
 2786 0670 F8379FE5 		ldr	r3, .L69+24
 2787 0674 0030D3E5 		ldrb	r3, [r3, #0]	@ zero_extendqisi2
 2788 0678 0100A0E3 		mov	r0, #1
 2789 067c 0310A0E1 		mov	r1, r3
 2790 0680 FEFFFFEB 		bl	plotState
 216:../proyecto.c **** 				state = waiting;                      /* Salta al estado demo_waiting */
 2791              		.loc 1 216 0
 2792 0684 F8379FE5 		ldr	r3, .L69+44
 2793 0688 0120A0E3 		mov	r2, #1
 2794 068c 0020C3E5 		strb	r2, [r3, #0]
 217:../proyecto.c **** 				parking[placeSelected].credit=0;
 2795              		.loc 1 217 0
 2796 0690 D8379FE5 		ldr	r3, .L69+24
 2797 0694 0030D3E5 		ldrb	r3, [r3, #0]	@ zero_extendqisi2
 2798 0698 0320A0E1 		mov	r2, r3
 2799 069c C8179FE5 		ldr	r1, .L69+20
 2800 06a0 0830A0E3 		mov	r3, #8
 2801 06a4 0222A0E1 		mov	r2, r2, asl #4
 2802 06a8 022081E0 		add	r2, r1, r2
 2803 06ac 033082E0 		add	r3, r2, r3
 2804 06b0 0020A0E3 		mov	r2, #0
 2805 06b4 B420C3E1 		strh	r2, [r3, #4]	@ movhi
 218:../proyecto.c **** 				coinsMoverMsg.accept = FALSE;              /* Envia un mensaje para que la moneda se devuelva *
 2806              		.loc 1 218 0
 2807 06b8 A4379FE5 		ldr	r3, .L69+12
 2808 06bc 0020A0E3 		mov	r2, #0
 2809 06c0 0120C3E5 		strb	r2, [r3, #1]
 219:../proyecto.c **** 				coinsMoverMsg.flag   = TRUE;
 2810              		.loc 1 219 0
 2811 06c4 98379FE5 		ldr	r3, .L69+12
 2812 06c8 0120A0E3 		mov	r2, #1
 2813 06cc 0020C3E5 		strb	r2, [r3, #0]
 2814              	.L33:
 220:../proyecto.c **** 			}
 221:../proyecto.c ****         	if( kpPressedMsg.flag )                /* Chequea si se ha introducido una moneda (mensaje
 2815              		.loc 1 221 0
 2816 06d0 A0379FE5 		ldr	r3, .L69+32
 2817 06d4 0030D3E5 		ldrb	r3, [r3, #0]	@ zero_extendqisi2
 2818 06d8 000053E3 		cmp	r3, #0
 2819 06dc 8600000A 		beq	.L34
 222:../proyecto.c **** 			{
 223:../proyecto.c **** 				kpPressedMsg.flag   = FALSE;           /* Marca el mensaje como leido */
 2820              		.loc 1 223 0
 2821 06e0 90379FE5 		ldr	r3, .L69+32
 2822 06e4 0020A0E3 		mov	r2, #0
 2823 06e8 0020C3E5 		strb	r2, [r3, #0]
 224:../proyecto.c **** 				parking[placeSelected].credit += kpPressedMsg.cents;          /* Incrementa el saldo */
 2824              		.loc 1 224 0
 2825 06ec 7C379FE5 		ldr	r3, .L69+24
 2826 06f0 0030D3E5 		ldrb	r3, [r3, #0]	@ zero_extendqisi2
 2827 06f4 0310A0E1 		mov	r1, r3
 2828 06f8 70379FE5 		ldr	r3, .L69+24
 2829 06fc 0030D3E5 		ldrb	r3, [r3, #0]	@ zero_extendqisi2
 2830 0700 0320A0E1 		mov	r2, r3
 2831 0704 60079FE5 		ldr	r0, .L69+20
 2832 0708 0830A0E3 		mov	r3, #8
 2833 070c 0222A0E1 		mov	r2, r2, asl #4
 2834 0710 022080E0 		add	r2, r0, r2
 2835 0714 033082E0 		add	r3, r2, r3
 2836 0718 B420D3E1 		ldrh	r2, [r3, #4]
 2837 071c 54379FE5 		ldr	r3, .L69+32
 2838 0720 0230D3E5 		ldrb	r3, [r3, #2]	@ zero_extendqisi2
 2839 0724 033082E0 		add	r3, r2, r3
 2840 0728 0338A0E1 		mov	r3, r3, asl #16
 2841 072c 2328A0E1 		mov	r2, r3, lsr #16
 2842 0730 34079FE5 		ldr	r0, .L69+20
 2843 0734 0830A0E3 		mov	r3, #8
 2844 0738 0112A0E1 		mov	r1, r1, asl #4
 2845 073c 011080E0 		add	r1, r0, r1
 2846 0740 033081E0 		add	r3, r1, r3
 2847 0744 B420C3E1 		strh	r2, [r3, #4]	@ movhi
 225:../proyecto.c **** 				ticks = 500;                              /* Restaura el tiempo maximo sin actividad que perman
 2848              		.loc 1 225 0
 2849 0748 24379FE5 		ldr	r3, .L69+28
 2850 074c 7D2FA0E3 		mov	r2, #500
 2851 0750 B020C3E1 		strh	r2, [r3, #0]	@ movhi
 226:../proyecto.c **** 				if(parking[placeSelected].credit > 240){
 2852              		.loc 1 226 0
 2853 0754 14379FE5 		ldr	r3, .L69+24
 2854 0758 0030D3E5 		ldrb	r3, [r3, #0]	@ zero_extendqisi2
 2855 075c 0320A0E1 		mov	r2, r3
 2856 0760 04179FE5 		ldr	r1, .L69+20
 2857 0764 0830A0E3 		mov	r3, #8
 2858 0768 0222A0E1 		mov	r2, r2, asl #4
 2859 076c 022081E0 		add	r2, r1, r2
 2860 0770 033082E0 		add	r3, r2, r3
 2861 0774 B430D3E1 		ldrh	r3, [r3, #4]
 2862 0778 F00053E3 		cmp	r3, #240
 2863 077c 2100009A 		bls	.L35
 2864              	.LBB3:
 227:../proyecto.c **** 					uint16 excess;
 228:../proyecto.c **** 					excess = parking[placeSelected].credit - 240;
 2865              		.loc 1 228 0
 2866 0780 E8369FE5 		ldr	r3, .L69+24
 2867 0784 0030D3E5 		ldrb	r3, [r3, #0]	@ zero_extendqisi2
 2868 0788 0320A0E1 		mov	r2, r3
 2869 078c D8169FE5 		ldr	r1, .L69+20
 2870 0790 0830A0E3 		mov	r3, #8
 2871 0794 0222A0E1 		mov	r2, r2, asl #4
 2872 0798 022081E0 		add	r2, r1, r2
 2873 079c 033082E0 		add	r3, r2, r3
 2874 07a0 B430D3E1 		ldrh	r3, [r3, #4]
 2875 07a4 F03043E2 		sub	r3, r3, #240
 2876 07a8 B2314BE1 		strh	r3, [fp, #-18]	@ movhi
 229:../proyecto.c **** 					parking[placeSelected].credit = 240;
 2877              		.loc 1 229 0
 2878 07ac BC369FE5 		ldr	r3, .L69+24
 2879 07b0 0030D3E5 		ldrb	r3, [r3, #0]	@ zero_extendqisi2
 2880 07b4 0320A0E1 		mov	r2, r3
 2881 07b8 AC169FE5 		ldr	r1, .L69+20
 2882 07bc 0830A0E3 		mov	r3, #8
 2883 07c0 0222A0E1 		mov	r2, r2, asl #4
 2884 07c4 022081E0 		add	r2, r1, r2
 2885 07c8 033082E0 		add	r3, r2, r3
 2886 07cc F020A0E3 		mov	r2, #240
 2887 07d0 B420C3E1 		strh	r2, [r3, #4]	@ movhi
 230:../proyecto.c **** 					plotExcessReturn(excess);
 2888              		.loc 1 230 0
 2889 07d4 B2315BE1 		ldrh	r3, [fp, #-18]	@ movhi
 2890 07d8 FF3003E2 		and	r3, r3, #255
 2891 07dc 033CA0E1 		mov	r3, r3, asl #24
 2892 07e0 433CA0E1 		mov	r3, r3, asr #24
 2893 07e4 0300A0E1 		mov	r0, r3
 2894 07e8 FEFFFFEB 		bl	plotExcessReturn
 231:../proyecto.c **** 					coinsMoverMsg.accept = FALSE;              /* Envia un mensaje para que la moneda se devuelva 
 2895              		.loc 1 231 0
 2896 07ec 70369FE5 		ldr	r3, .L69+12
 2897 07f0 0020A0E3 		mov	r2, #0
 2898 07f4 0120C3E5 		strb	r2, [r3, #1]
 232:../proyecto.c **** 					coinsMoverMsg.flag   = TRUE;
 2899              		.loc 1 232 0
 2900 07f8 64369FE5 		ldr	r3, .L69+12
 2901 07fc 0120A0E3 		mov	r2, #1
 2902 0800 0020C3E5 		strb	r2, [r3, #0]
 2903 0804 050000EA 		b	.L36
 2904              	.L35:
 2905              	.LBE3:
 233:../proyecto.c **** 				} else {
 234:../proyecto.c **** 					coinsMoverMsg.accept = TRUE;              /* Envia un mensaje para que las monedas se acepten 
 2906              		.loc 1 234 0
 2907 0808 54369FE5 		ldr	r3, .L69+12
 2908 080c 0120A0E3 		mov	r2, #1
 2909 0810 0120C3E5 		strb	r2, [r3, #1]
 235:../proyecto.c **** 					coinsMoverMsg.flag   = TRUE;
 2910              		.loc 1 235 0
 2911 0814 48369FE5 		ldr	r3, .L69+12
 2912 0818 0120A0E3 		mov	r2, #1
 2913 081c 0020C3E5 		strb	r2, [r3, #0]
 2914              	.L36:
 236:../proyecto.c **** 				}
 237:../proyecto.c **** 				updateDeadline(parking[placeSelected].credit,&parking[placeSelected].deadline); // Actualiza la
 2915              		.loc 1 237 0
 2916 0820 48369FE5 		ldr	r3, .L69+24
 2917 0824 0030D3E5 		ldrb	r3, [r3, #0]	@ zero_extendqisi2
 2918 0828 0320A0E1 		mov	r2, r3
 2919 082c 38169FE5 		ldr	r1, .L69+20
 2920 0830 0830A0E3 		mov	r3, #8
 2921 0834 0222A0E1 		mov	r2, r2, asl #4
 2922 0838 022081E0 		add	r2, r1, r2
 2923 083c 033082E0 		add	r3, r2, r3
 2924 0840 B420D3E1 		ldrh	r2, [r3, #4]
 2925 0844 24369FE5 		ldr	r3, .L69+24
 2926 0848 0030D3E5 		ldrb	r3, [r3, #0]	@ zero_extendqisi2
 2927 084c 0312A0E1 		mov	r1, r3, asl #4
 2928 0850 14369FE5 		ldr	r3, .L69+20
 2929 0854 033081E0 		add	r3, r1, r3
 2930 0858 023083E2 		add	r3, r3, #2
 2931 085c 0200A0E1 		mov	r0, r2
 2932 0860 0310A0E1 		mov	r1, r3
 2933 0864 FEFFFFEB 		bl	updateDeadline
 238:../proyecto.c **** 				plotPayCredit(parking[placeSelected].credit);
 2934              		.loc 1 238 0
 2935 0868 00369FE5 		ldr	r3, .L69+24
 2936 086c 0030D3E5 		ldrb	r3, [r3, #0]	@ zero_extendqisi2
 2937 0870 0320A0E1 		mov	r2, r3
 2938 0874 F0159FE5 		ldr	r1, .L69+20
 2939 0878 0830A0E3 		mov	r3, #8
 2940 087c 0222A0E1 		mov	r2, r2, asl #4
 2941 0880 022081E0 		add	r2, r1, r2
 2942 0884 033082E0 		add	r3, r2, r3
 2943 0888 B430D3E1 		ldrh	r3, [r3, #4]
 2944 088c FF3003E2 		and	r3, r3, #255
 2945 0890 0300A0E1 		mov	r0, r3
 2946 0894 FEFFFFEB 		bl	plotPayCredit
 239:../proyecto.c **** 				plotPayDeadline(parking[placeSelected].deadline);
 2947              		.loc 1 239 0
 2948 0898 D0359FE5 		ldr	r3, .L69+24
 2949 089c 0030D3E5 		ldrb	r3, [r3, #0]	@ zero_extendqisi2
 2950 08a0 0320A0E1 		mov	r2, r3
 2951 08a4 C0159FE5 		ldr	r1, .L69+20
 2952 08a8 0230A0E3 		mov	r3, #2
 2953 08ac 0222A0E1 		mov	r2, r2, asl #4
 2954 08b0 022081E0 		add	r2, r1, r2
 2955 08b4 033082E0 		add	r3, r2, r3
 2956 08b8 B020D3E1 		ldrh	r2, [r3, #0]
 2957 08bc B210D3E1 		ldrh	r1, [r3, #2]
 2958 08c0 0118A0E1 		mov	r1, r1, asl #16
 2959 08c4 021081E1 		orr	r1, r1, r2
 2960 08c8 0020A0E3 		mov	r2, #0
 2961 08cc 0120A0E1 		mov	r2, r1
 2962 08d0 B410D3E1 		ldrh	r1, [r3, #4]
 2963 08d4 0630D3E5 		ldrb	r3, [r3, #6]	@ zero_extendqisi2
 2964 08d8 0338A0E1 		mov	r3, r3, asl #16
 2965 08dc 011083E1 		orr	r1, r3, r1
 2966 08e0 0030A0E3 		mov	r3, #0
 2967 08e4 FF14C1E3 		bic	r1, r1, #-16777216
 2968 08e8 FF3403E2 		and	r3, r3, #-16777216
 2969 08ec 033081E1 		orr	r3, r1, r3
 2970 08f0 0200A0E1 		mov	r0, r2
 2971 08f4 0310A0E1 		mov	r1, r3
 2972 08f8 FEFFFFEB 		bl	plotPayDeadline
 2973              	.L34:
 240:../proyecto.c **** 
 241:../proyecto.c **** 			}
 242:../proyecto.c ****         	if( tsPressedMsg.flag && !tsPressedMsg.langFlag )                    /* Chequea si se ha p
 2974              		.loc 1 242 0
 2975 08fc 78359FE5 		ldr	r3, .L69+36
 2976 0900 0030D3E5 		ldrb	r3, [r3, #0]	@ zero_extendqisi2
 2977 0904 000053E3 		cmp	r3, #0
 2978 0908 4900000A 		beq	.L37
 2979              		.loc 1 242 0 is_stmt 0 discriminator 1
 2980 090c 68359FE5 		ldr	r3, .L69+36
 2981 0910 0130D3E5 		ldrb	r3, [r3, #1]	@ zero_extendqisi2
 2982 0914 000053E3 		cmp	r3, #0
 2983 0918 4500001A 		bne	.L37
 243:../proyecto.c **** 			{
 244:../proyecto.c **** 				tsPressedMsg.flag = FALSE;                /* Marca el mensaje como leido */
 2984              		.loc 1 244 0 is_stmt 1
 2985 091c 58359FE5 		ldr	r3, .L69+36
 2986 0920 0020A0E3 		mov	r2, #0
 2987 0924 0020C3E5 		strb	r2, [r3, #0]
 245:../proyecto.c **** 				if(parking[placeSelected].credit < 20){
 2988              		.loc 1 245 0
 2989 0928 40359FE5 		ldr	r3, .L69+24
 2990 092c 0030D3E5 		ldrb	r3, [r3, #0]	@ zero_extendqisi2
 2991 0930 0320A0E1 		mov	r2, r3
 2992 0934 30159FE5 		ldr	r1, .L69+20
 2993 0938 0830A0E3 		mov	r3, #8
 2994 093c 0222A0E1 		mov	r2, r2, asl #4
 2995 0940 022081E0 		add	r2, r1, r2
 2996 0944 033082E0 		add	r3, r2, r3
 2997 0948 B430D3E1 		ldrh	r3, [r3, #4]
 2998 094c 130053E3 		cmp	r3, #19
 2999 0950 1F00008A 		bhi	.L38
 246:../proyecto.c **** 					parking[placeSelected].credit = 0;
 3000              		.loc 1 246 0
 3001 0954 14359FE5 		ldr	r3, .L69+24
 3002 0958 0030D3E5 		ldrb	r3, [r3, #0]	@ zero_extendqisi2
 3003 095c 0320A0E1 		mov	r2, r3
 3004 0960 04159FE5 		ldr	r1, .L69+20
 3005 0964 0830A0E3 		mov	r3, #8
 3006 0968 0222A0E1 		mov	r2, r2, asl #4
 3007 096c 022081E0 		add	r2, r1, r2
 3008 0970 033082E0 		add	r3, r2, r3
 3009 0974 0020A0E3 		mov	r2, #0
 3010 0978 B420C3E1 		strh	r2, [r3, #4]	@ movhi
 247:../proyecto.c **** 					parking[placeSelected].error = INSUF_ERROR;
 3011              		.loc 1 247 0
 3012 097c EC349FE5 		ldr	r3, .L69+24
 3013 0980 0030D3E5 		ldrb	r3, [r3, #0]	@ zero_extendqisi2
 3014 0984 0320A0E1 		mov	r2, r3
 3015 0988 DC149FE5 		ldr	r1, .L69+20
 3016 098c 0830A0E3 		mov	r3, #8
 3017 0990 0222A0E1 		mov	r2, r2, asl #4
 3018 0994 022081E0 		add	r2, r1, r2
 3019 0998 033082E0 		add	r3, r2, r3
 3020 099c 0220A0E3 		mov	r2, #2
 3021 09a0 0620C3E5 		strb	r2, [r3, #6]
 248:../proyecto.c **** 					plotState(error,placeSelected);
 3022              		.loc 1 248 0
 3023 09a4 C4349FE5 		ldr	r3, .L69+24
 3024 09a8 0030D3E5 		ldrb	r3, [r3, #0]	@ zero_extendqisi2
 3025 09ac 0600A0E3 		mov	r0, #6
 3026 09b0 0310A0E1 		mov	r1, r3
 3027 09b4 FEFFFFEB 		bl	plotState
 249:../proyecto.c **** 					state = error;
 3028              		.loc 1 249 0
 3029 09b8 C4349FE5 		ldr	r3, .L69+44
 3030 09bc 0620A0E3 		mov	r2, #6
 3031 09c0 0020C3E5 		strb	r2, [r3, #0]
 250:../proyecto.c **** 					ticks = 300;
 3032              		.loc 1 250 0
 3033 09c4 A8349FE5 		ldr	r3, .L69+28
 3034 09c8 4B2FA0E3 		mov	r2, #300
 3035 09cc B020C3E1 		strh	r2, [r3, #0]	@ movhi
 3036 09d0 170000EA 		b	.L37
 3037              	.L38:
 251:../proyecto.c **** 				} else {
 252:../proyecto.c **** 					plotState(licPlateInput,placeSelected);
 3038              		.loc 1 252 0
 3039 09d4 94349FE5 		ldr	r3, .L69+24
 3040 09d8 0030D3E5 		ldrb	r3, [r3, #0]	@ zero_extendqisi2
 3041 09dc 0400A0E3 		mov	r0, #4
 3042 09e0 0310A0E1 		mov	r1, r3
 3043 09e4 FEFFFFEB 		bl	plotState
 253:../proyecto.c **** 					state = licPlateInput;
 3044              		.loc 1 253 0
 3045 09e8 94349FE5 		ldr	r3, .L69+44
 3046 09ec 0420A0E3 		mov	r2, #4
 3047 09f0 0020C3E5 		strb	r2, [r3, #0]
 254:../proyecto.c **** 					kpPressedMsg.licPlateInput = TRUE;
 3048              		.loc 1 254 0
 3049 09f4 7C349FE5 		ldr	r3, .L69+32
 3050 09f8 0120A0E3 		mov	r2, #1
 3051 09fc 0120C3E5 		strb	r2, [r3, #1]
 255:../proyecto.c **** 					parking[placeSelected].credit = 0;
 3052              		.loc 1 255 0
 3053 0a00 68349FE5 		ldr	r3, .L69+24
 3054 0a04 0030D3E5 		ldrb	r3, [r3, #0]	@ zero_extendqisi2
 3055 0a08 0320A0E1 		mov	r2, r3
 3056 0a0c 58149FE5 		ldr	r1, .L69+20
 3057 0a10 0830A0E3 		mov	r3, #8
 3058 0a14 0222A0E1 		mov	r2, r2, asl #4
 3059 0a18 022081E0 		add	r2, r1, r2
 3060 0a1c 033082E0 		add	r3, r2, r3
 3061 0a20 0020A0E3 		mov	r2, #0
 3062 0a24 B420C3E1 		strh	r2, [r3, #4]	@ movhi
 256:../proyecto.c **** 					ticks = 500;
 3063              		.loc 1 256 0
 3064 0a28 44349FE5 		ldr	r3, .L69+28
 3065 0a2c 7D2FA0E3 		mov	r2, #500
 3066 0a30 B020C3E1 		strh	r2, [r3, #0]	@ movhi
 3067              	.L37:
 257:../proyecto.c **** 				}
 258:../proyecto.c **** 			}
 259:../proyecto.c ****         	if ( tsPressedMsg.langFlag )
 3068              		.loc 1 259 0
 3069 0a34 40349FE5 		ldr	r3, .L69+36
 3070 0a38 0130D3E5 		ldrb	r3, [r3, #1]	@ zero_extendqisi2
 3071 0a3c 000053E3 		cmp	r3, #0
 3072 0a40 1B02000A 		beq	.L65
 260:../proyecto.c **** 			{
 261:../proyecto.c **** 				tsPressedMsg.flag = FALSE;
 3073              		.loc 1 261 0
 3074 0a44 30349FE5 		ldr	r3, .L69+36
 3075 0a48 0020A0E3 		mov	r2, #0
 3076 0a4c 0020C3E5 		strb	r2, [r3, #0]
 262:../proyecto.c **** 				tsPressedMsg.langFlag = FALSE;
 3077              		.loc 1 262 0
 3078 0a50 24349FE5 		ldr	r3, .L69+36
 3079 0a54 0020A0E3 		mov	r2, #0
 3080 0a58 0120C3E5 		strb	r2, [r3, #1]
 263:../proyecto.c **** 				prevState = state;
 3081              		.loc 1 263 0
 3082 0a5c 20349FE5 		ldr	r3, .L69+44
 3083 0a60 0020D3E5 		ldrb	r2, [r3, #0]	@ zero_extendqisi2
 3084 0a64 14349FE5 		ldr	r3, .L69+40
 3085 0a68 0020C3E5 		strb	r2, [r3, #0]
 264:../proyecto.c **** 				plotState(language,placeSelected);
 3086              		.loc 1 264 0
 3087 0a6c FC339FE5 		ldr	r3, .L69+24
 3088 0a70 0030D3E5 		ldrb	r3, [r3, #0]	@ zero_extendqisi2
 3089 0a74 0000A0E3 		mov	r0, #0
 3090 0a78 0310A0E1 		mov	r1, r3
 3091 0a7c FEFFFFEB 		bl	plotState
 265:../proyecto.c **** 				state = language;
 3092              		.loc 1 265 0
 3093 0a80 FC339FE5 		ldr	r3, .L69+44
 3094 0a84 0020A0E3 		mov	r2, #0
 3095 0a88 0020C3E5 		strb	r2, [r3, #0]
 266:../proyecto.c **** 				ticks = 500;
 3096              		.loc 1 266 0
 3097 0a8c E0339FE5 		ldr	r3, .L69+28
 3098 0a90 7D2FA0E3 		mov	r2, #500
 3099 0a94 B020C3E1 		strh	r2, [r3, #0]	@ movhi
 267:../proyecto.c **** 			}
 268:../proyecto.c ****         	break;
 3100              		.loc 1 268 0
 3101 0a98 0C0200EA 		b	.L5
 3102              	.L14:
 269:../proyecto.c ****         case licPlateInput:
 270:../proyecto.c ****         	kpPressedMsg.licPlateInput = TRUE;							//activa el modo matricula
 3103              		.loc 1 270 0
 3104 0a9c D4339FE5 		ldr	r3, .L69+32
 3105 0aa0 0120A0E3 		mov	r2, #1
 3106 0aa4 0120C3E5 		strb	r2, [r3, #1]
 271:../proyecto.c **** 			if( !(--ticks) )                           /* Decrementa ticks y chequea si ha permanecido en es
 3107              		.loc 1 271 0
 3108 0aa8 C4339FE5 		ldr	r3, .L69+28
 3109 0aac B030D3E1 		ldrh	r3, [r3, #0]
 3110 0ab0 013043E2 		sub	r3, r3, #1
 3111 0ab4 0338A0E1 		mov	r3, r3, asl #16
 3112 0ab8 2328A0E1 		mov	r2, r3, lsr #16
 3113 0abc B0339FE5 		ldr	r3, .L69+28
 3114 0ac0 B020C3E1 		strh	r2, [r3, #0]	@ movhi
 3115 0ac4 A8339FE5 		ldr	r3, .L69+28
 3116 0ac8 B030D3E1 		ldrh	r3, [r3, #0]
 3117 0acc 000053E3 		cmp	r3, #0
 3118 0ad0 1000001A 		bne	.L40
 272:../proyecto.c **** 			{
 273:../proyecto.c **** 				plotState(waiting,placeSelected);                          /* Visualiza pantalla inicial */
 3119              		.loc 1 273 0
 3120 0ad4 94339FE5 		ldr	r3, .L69+24
 3121 0ad8 0030D3E5 		ldrb	r3, [r3, #0]	@ zero_extendqisi2
 3122 0adc 0100A0E3 		mov	r0, #1
 3123 0ae0 0310A0E1 		mov	r1, r3
 3124 0ae4 FEFFFFEB 		bl	plotState
 274:../proyecto.c **** 				kpPressedMsg.licPlateInput = FALSE;			//limpio el flag del keypress porque voy a cambiar de est
 3125              		.loc 1 274 0
 3126 0ae8 88339FE5 		ldr	r3, .L69+32
 3127 0aec 0020A0E3 		mov	r2, #0
 3128 0af0 0120C3E5 		strb	r2, [r3, #1]
 275:../proyecto.c **** 				coinsMoverMsg.accept = FALSE;              /* Envia un mensaje para que la moneda se devuelva *
 3129              		.loc 1 275 0
 3130 0af4 68339FE5 		ldr	r3, .L69+12
 3131 0af8 0020A0E3 		mov	r2, #0
 3132 0afc 0120C3E5 		strb	r2, [r3, #1]
 276:../proyecto.c **** 				coinsMoverMsg.flag   = TRUE;
 3133              		.loc 1 276 0
 3134 0b00 5C339FE5 		ldr	r3, .L69+12
 3135 0b04 0120A0E3 		mov	r2, #1
 3136 0b08 0020C3E5 		strb	r2, [r3, #0]
 277:../proyecto.c **** 				state = waiting;                      /* Salta al estado demo_waiting */
 3137              		.loc 1 277 0
 3138 0b0c 70339FE5 		ldr	r3, .L69+44
 3139 0b10 0120A0E3 		mov	r2, #1
 3140 0b14 0020C3E5 		strb	r2, [r3, #0]
 3141              	.L40:
 278:../proyecto.c **** 			}
 279:../proyecto.c **** 			if( kpPressedMsg.flag )                /* Chequea si se ha introducido una moneda (mensaje recib
 3142              		.loc 1 279 0
 3143 0b18 58339FE5 		ldr	r3, .L69+32
 3144 0b1c 0030D3E5 		ldrb	r3, [r3, #0]	@ zero_extendqisi2
 3145 0b20 000053E3 		cmp	r3, #0
 3146 0b24 2000000A 		beq	.L41
 280:../proyecto.c **** 			{
 281:../proyecto.c **** 				kpPressedMsg.flag = FALSE;             						 /* Marca el mensaje como leido */
 3147              		.loc 1 281 0
 3148 0b28 48339FE5 		ldr	r3, .L69+32
 3149 0b2c 0020A0E3 		mov	r2, #0
 3150 0b30 0020C3E5 		strb	r2, [r3, #0]
 282:../proyecto.c **** 				if(getLicPlate(&parking[placeSelected].licPlate))
 3151              		.loc 1 282 0
 3152 0b34 34339FE5 		ldr	r3, .L69+24
 3153 0b38 0030D3E5 		ldrb	r3, [r3, #0]	@ zero_extendqisi2
 3154 0b3c 0332A0E1 		mov	r3, r3, asl #4
 3155 0b40 082083E2 		add	r2, r3, #8
 3156 0b44 20339FE5 		ldr	r3, .L69+20
 3157 0b48 033082E0 		add	r3, r2, r3
 3158 0b4c 023083E2 		add	r3, r3, #2
 3159 0b50 0300A0E1 		mov	r0, r3
 3160 0b54 FEFFFFEB 		bl	getLicPlate
 3161 0b58 0030A0E1 		mov	r3, r0
 3162 0b5c 000053E3 		cmp	r3, #0
 3163 0b60 0E00000A 		beq	.L42
 283:../proyecto.c **** 				{
 284:../proyecto.c **** 					plotLicPlateUpdate(parking[placeSelected].licPlate);
 3164              		.loc 1 284 0
 3165 0b64 04339FE5 		ldr	r3, .L69+24
 3166 0b68 0030D3E5 		ldrb	r3, [r3, #0]	@ zero_extendqisi2
 3167 0b6c 0320A0E1 		mov	r2, r3
 3168 0b70 F4129FE5 		ldr	r1, .L69+20
 3169 0b74 0830A0E3 		mov	r3, #8
 3170 0b78 0222A0E1 		mov	r2, r2, asl #4
 3171 0b7c 022081E0 		add	r2, r1, r2
 3172 0b80 033082E0 		add	r3, r2, r3
 3173 0b84 B230D3E1 		ldrh	r3, [r3, #2]
 3174 0b88 0338A0E1 		mov	r3, r3, asl #16
 3175 0b8c 2338A0E1 		mov	r3, r3, lsr #16
 3176 0b90 0338A0E1 		mov	r3, r3, asl #16
 3177 0b94 4338A0E1 		mov	r3, r3, asr #16
 3178 0b98 0300A0E1 		mov	r0, r3
 3179 0b9c FEFFFFEB 		bl	plotLicPlateUpdate
 3180              	.L42:
 285:../proyecto.c **** 				}
 286:../proyecto.c **** 				ticks = 500;
 3181              		.loc 1 286 0
 3182 0ba0 CC329FE5 		ldr	r3, .L69+28
 3183 0ba4 7D2FA0E3 		mov	r2, #500
 3184 0ba8 B020C3E1 		strh	r2, [r3, #0]	@ movhi
 3185              	.L41:
 287:../proyecto.c **** 			}
 288:../proyecto.c **** 			if( tsPressedMsg.flag && !tsPressedMsg.langFlag )                    /* Chequea si se ha pulsado
 3186              		.loc 1 288 0
 3187 0bac C8329FE5 		ldr	r3, .L69+36
 3188 0bb0 0030D3E5 		ldrb	r3, [r3, #0]	@ zero_extendqisi2
 3189 0bb4 000053E3 		cmp	r3, #0
 3190 0bb8 3C00000A 		beq	.L43
 3191              		.loc 1 288 0 is_stmt 0 discriminator 1
 3192 0bbc B8329FE5 		ldr	r3, .L69+36
 3193 0bc0 0130D3E5 		ldrb	r3, [r3, #1]	@ zero_extendqisi2
 3194 0bc4 000053E3 		cmp	r3, #0
 3195 0bc8 3800001A 		bne	.L43
 289:../proyecto.c **** 			{
 290:../proyecto.c **** 				tsPressedMsg.flag = FALSE;                 /* Marca el mensaje como leido */
 3196              		.loc 1 290 0 is_stmt 1
 3197 0bcc A8329FE5 		ldr	r3, .L69+36
 3198 0bd0 0020A0E3 		mov	r2, #0
 3199 0bd4 0020C3E5 		strb	r2, [r3, #0]
 291:../proyecto.c **** 				parking[placeSelected].free = FALSE;
 3200              		.loc 1 291 0
 3201 0bd8 90329FE5 		ldr	r3, .L69+24
 3202 0bdc 0030D3E5 		ldrb	r3, [r3, #0]	@ zero_extendqisi2
 3203 0be0 0320A0E1 		mov	r2, r3
 3204 0be4 80129FE5 		ldr	r1, .L69+20
 3205 0be8 0130A0E3 		mov	r3, #1
 3206 0bec 0222A0E1 		mov	r2, r2, asl #4
 3207 0bf0 022081E0 		add	r2, r1, r2
 3208 0bf4 033082E0 		add	r3, r2, r3
 3209 0bf8 0020A0E3 		mov	r2, #0
 3210 0bfc 0020C3E5 		strb	r2, [r3, #0]
 292:../proyecto.c **** 				ticketMsg.place = parking[placeSelected]; //imprime el ticket
 3211              		.loc 1 292 0
 3212 0c00 68329FE5 		ldr	r3, .L69+24
 3213 0c04 0030D3E5 		ldrb	r3, [r3, #0]	@ zero_extendqisi2
 3214 0c08 50129FE5 		ldr	r1, .L69+8
 3215 0c0c 58229FE5 		ldr	r2, .L69+20
 3216 0c10 021081E2 		add	r1, r1, #2
 3217 0c14 0332A0E1 		mov	r3, r3, asl #4
 3218 0c18 033082E0 		add	r3, r2, r3
 3219 0c1c 1020A0E3 		mov	r2, #16
 3220 0c20 0100A0E1 		mov	r0, r1
 3221 0c24 0310A0E1 		mov	r1, r3
 3222 0c28 FEFFFFEB 		bl	memcpy
 293:../proyecto.c **** 				ticketMsg.flag = TRUE;
 3223              		.loc 1 293 0
 3224 0c2c 2C329FE5 		ldr	r3, .L69+8
 3225 0c30 0120A0E3 		mov	r2, #1
 3226 0c34 0020C3E5 		strb	r2, [r3, #0]
 294:../proyecto.c **** 				kpPressedMsg.licPlateInput = FALSE;			//limpio el flag del keypress porque voy a cambiar de est
 3227              		.loc 1 294 0
 3228 0c38 38329FE5 		ldr	r3, .L69+32
 3229 0c3c 0020A0E3 		mov	r2, #0
 3230 0c40 0120C3E5 		strb	r2, [r3, #1]
 295:../proyecto.c **** 				state = success;      		 /* Salta al estado success */
 3231              		.loc 1 295 0
 3232 0c44 38329FE5 		ldr	r3, .L69+44
 3233 0c48 0520A0E3 		mov	r2, #5
 3234 0c4c 0020C3E5 		strb	r2, [r3, #0]
 296:../proyecto.c **** 				ticks = 500;
 3235              		.loc 1 296 0
 3236 0c50 1C329FE5 		ldr	r3, .L69+28
 3237 0c54 7D2FA0E3 		mov	r2, #500
 3238 0c58 B020C3E1 		strh	r2, [r3, #0]	@ movhi
 297:../proyecto.c **** 
 298:../proyecto.c **** 				if(!parking[placeSelected].licPlate){  //si hay un error en la matricula repite la operacion.
 3239              		.loc 1 298 0
 3240 0c5c 0C329FE5 		ldr	r3, .L69+24
 3241 0c60 0030D3E5 		ldrb	r3, [r3, #0]	@ zero_extendqisi2
 3242 0c64 0320A0E1 		mov	r2, r3
 3243 0c68 FC119FE5 		ldr	r1, .L69+20
 3244 0c6c 0830A0E3 		mov	r3, #8
 3245 0c70 0222A0E1 		mov	r2, r2, asl #4
 3246 0c74 022081E0 		add	r2, r1, r2
 3247 0c78 033082E0 		add	r3, r2, r3
 3248 0c7c B230D3E1 		ldrh	r3, [r3, #2]
 3249 0c80 000053E3 		cmp	r3, #0
 3250 0c84 0400001A 		bne	.L44
 299:../proyecto.c **** 					state = licPlateInput;
 3251              		.loc 1 299 0
 3252 0c88 F4319FE5 		ldr	r3, .L69+44
 3253 0c8c 0420A0E3 		mov	r2, #4
 3254 0c90 0020C3E5 		strb	r2, [r3, #0]
 300:../proyecto.c **** 					plotLicPlateEnc();
 3255              		.loc 1 300 0
 3256 0c94 FEFFFFEB 		bl	plotLicPlateEnc
 3257 0c98 040000EA 		b	.L43
 3258              	.L44:
 301:../proyecto.c **** 				} else
 302:../proyecto.c **** 					plotState(success,placeSelected);  /* Visualiza pantalla de exito */;
 3259              		.loc 1 302 0
 3260 0c9c CC319FE5 		ldr	r3, .L69+24
 3261 0ca0 0030D3E5 		ldrb	r3, [r3, #0]	@ zero_extendqisi2
 3262 0ca4 0500A0E3 		mov	r0, #5
 3263 0ca8 0310A0E1 		mov	r1, r3
 3264 0cac FEFFFFEB 		bl	plotState
 3265              	.L43:
 303:../proyecto.c **** 			}
 304:../proyecto.c **** 			if ( tsPressedMsg.langFlag )
 3266              		.loc 1 304 0
 3267 0cb0 C4319FE5 		ldr	r3, .L69+36
 3268 0cb4 0130D3E5 		ldrb	r3, [r3, #1]	@ zero_extendqisi2
 3269 0cb8 000053E3 		cmp	r3, #0
 3270 0cbc 7E01000A 		beq	.L66
 305:../proyecto.c **** 			{
 306:../proyecto.c **** 				tsPressedMsg.flag = FALSE;
 3271              		.loc 1 306 0
 3272 0cc0 B4319FE5 		ldr	r3, .L69+36
 3273 0cc4 0020A0E3 		mov	r2, #0
 3274 0cc8 0020C3E5 		strb	r2, [r3, #0]
 307:../proyecto.c **** 				tsPressedMsg.langFlag = FALSE;
 3275              		.loc 1 307 0
 3276 0ccc A8319FE5 		ldr	r3, .L69+36
 3277 0cd0 0020A0E3 		mov	r2, #0
 3278 0cd4 0120C3E5 		strb	r2, [r3, #1]
 308:../proyecto.c **** 				prevState = state;
 3279              		.loc 1 308 0
 3280 0cd8 A4319FE5 		ldr	r3, .L69+44
 3281 0cdc 0020D3E5 		ldrb	r2, [r3, #0]	@ zero_extendqisi2
 3282 0ce0 98319FE5 		ldr	r3, .L69+40
 3283 0ce4 0020C3E5 		strb	r2, [r3, #0]
 309:../proyecto.c **** 				plotState(language,placeSelected);
 3284              		.loc 1 309 0
 3285 0ce8 80319FE5 		ldr	r3, .L69+24
 3286 0cec 0030D3E5 		ldrb	r3, [r3, #0]	@ zero_extendqisi2
 3287 0cf0 0000A0E3 		mov	r0, #0
 3288 0cf4 0310A0E1 		mov	r1, r3
 3289 0cf8 FEFFFFEB 		bl	plotState
 310:../proyecto.c **** 				state = language;
 3290              		.loc 1 310 0
 3291 0cfc 80319FE5 		ldr	r3, .L69+44
 3292 0d00 0020A0E3 		mov	r2, #0
 3293 0d04 0020C3E5 		strb	r2, [r3, #0]
 311:../proyecto.c **** 				ticks = 500;
 3294              		.loc 1 311 0
 3295 0d08 64319FE5 		ldr	r3, .L69+28
 3296 0d0c 7D2FA0E3 		mov	r2, #500
 3297 0d10 B020C3E1 		strh	r2, [r3, #0]	@ movhi
 312:../proyecto.c **** 			}
 313:../proyecto.c **** 			break;
 3298              		.loc 1 313 0
 3299 0d14 6D0100EA 		b	.L5
 3300              	.L15:
 314:../proyecto.c ****         case success:
 315:../proyecto.c **** 			if( !(--ticks) )                           /* Decrementa ticks y chequea si ha permanecido en es
 3301              		.loc 1 315 0
 3302 0d18 54319FE5 		ldr	r3, .L69+28
 3303 0d1c B030D3E1 		ldrh	r3, [r3, #0]
 3304 0d20 013043E2 		sub	r3, r3, #1
 3305 0d24 0338A0E1 		mov	r3, r3, asl #16
 3306 0d28 2328A0E1 		mov	r2, r3, lsr #16
 3307 0d2c 40319FE5 		ldr	r3, .L69+28
 3308 0d30 B020C3E1 		strh	r2, [r3, #0]	@ movhi
 3309 0d34 38319FE5 		ldr	r3, .L69+28
 3310 0d38 B030D3E1 		ldrh	r3, [r3, #0]
 3311 0d3c 000053E3 		cmp	r3, #0
 3312 0d40 0700001A 		bne	.L46
 316:../proyecto.c **** 			{
 317:../proyecto.c **** 				plotState(waiting,placeSelected);                        /* Visualiza pantalla inicial */
 3313              		.loc 1 317 0
 3314 0d44 24319FE5 		ldr	r3, .L69+24
 3315 0d48 0030D3E5 		ldrb	r3, [r3, #0]	@ zero_extendqisi2
 3316 0d4c 0100A0E3 		mov	r0, #1
 3317 0d50 0310A0E1 		mov	r1, r3
 3318 0d54 FEFFFFEB 		bl	plotState
 318:../proyecto.c **** 				state = waiting;                      /* Salta al estado demo_waiting */
 3319              		.loc 1 318 0
 3320 0d58 24319FE5 		ldr	r3, .L69+44
 3321 0d5c 0120A0E3 		mov	r2, #1
 3322 0d60 0020C3E5 		strb	r2, [r3, #0]
 3323              	.L46:
 319:../proyecto.c **** 			}
 320:../proyecto.c **** 			if( kpPressedMsg.flag )                /* Chequea si se ha introducido una moneda (mensaje recib
 3324              		.loc 1 320 0
 3325 0d64 0C319FE5 		ldr	r3, .L69+32
 3326 0d68 0030D3E5 		ldrb	r3, [r3, #0]	@ zero_extendqisi2
 3327 0d6c 000053E3 		cmp	r3, #0
 3328 0d70 0800000A 		beq	.L47
 321:../proyecto.c **** 			{
 322:../proyecto.c **** 				kpPressedMsg.flag = FALSE;              /* Marca el mensaje como leido */
 3329              		.loc 1 322 0
 3330 0d74 FC309FE5 		ldr	r3, .L69+32
 3331 0d78 0020A0E3 		mov	r2, #0
 3332 0d7c 0020C3E5 		strb	r2, [r3, #0]
 323:../proyecto.c **** 				coinsMoverMsg.accept = FALSE;              /* Envia un mensaje para que la moneda se devuelva *
 3333              		.loc 1 323 0
 3334 0d80 DC309FE5 		ldr	r3, .L69+12
 3335 0d84 0020A0E3 		mov	r2, #0
 3336 0d88 0120C3E5 		strb	r2, [r3, #1]
 324:../proyecto.c **** 				coinsMoverMsg.flag   = TRUE;
 3337              		.loc 1 324 0
 3338 0d8c D0309FE5 		ldr	r3, .L69+12
 3339 0d90 0120A0E3 		mov	r2, #1
 3340 0d94 0020C3E5 		strb	r2, [r3, #0]
 3341              	.L47:
 325:../proyecto.c **** 			}
 326:../proyecto.c **** 			if( tsPressedMsg.flag && !tsPressedMsg.langFlag )                    /* Chequea si se ha pulsado
 3342              		.loc 1 326 0
 3343 0d98 DC309FE5 		ldr	r3, .L69+36
 3344 0d9c 0030D3E5 		ldrb	r3, [r3, #0]	@ zero_extendqisi2
 3345 0da0 000053E3 		cmp	r3, #0
 3346 0da4 1100000A 		beq	.L48
 3347              		.loc 1 326 0 is_stmt 0 discriminator 1
 3348 0da8 CC309FE5 		ldr	r3, .L69+36
 3349 0dac 0130D3E5 		ldrb	r3, [r3, #1]	@ zero_extendqisi2
 3350 0db0 000053E3 		cmp	r3, #0
 3351 0db4 0D00001A 		bne	.L48
 327:../proyecto.c **** 			{
 328:../proyecto.c **** 				tsPressedMsg.flag = FALSE;                 /* Marca el mensaje como leido */
 3352              		.loc 1 328 0 is_stmt 1
 3353 0db8 BC309FE5 		ldr	r3, .L69+36
 3354 0dbc 0020A0E3 		mov	r2, #0
 3355 0dc0 0020C3E5 		strb	r2, [r3, #0]
 329:../proyecto.c **** 				plotState(waiting,placeSelected);                                 /* Borra pantalla */
 3356              		.loc 1 329 0
 3357 0dc4 A4309FE5 		ldr	r3, .L69+24
 3358 0dc8 0030D3E5 		ldrb	r3, [r3, #0]	@ zero_extendqisi2
 3359 0dcc 0100A0E3 		mov	r0, #1
 3360 0dd0 0310A0E1 		mov	r1, r3
 3361 0dd4 FEFFFFEB 		bl	plotState
 330:../proyecto.c **** 				state = waiting;                  /* Salta al estado selection ... */
 3362              		.loc 1 330 0
 3363 0dd8 A4309FE5 		ldr	r3, .L69+44
 3364 0ddc 0120A0E3 		mov	r2, #1
 3365 0de0 0020C3E5 		strb	r2, [r3, #0]
 331:../proyecto.c **** 				ticks = 500;                               /* ... en el que debera permanecer un maximo de 500 
 3366              		.loc 1 331 0
 3367 0de4 88309FE5 		ldr	r3, .L69+28
 3368 0de8 7D2FA0E3 		mov	r2, #500
 3369 0dec B020C3E1 		strh	r2, [r3, #0]	@ movhi
 3370              	.L48:
 332:../proyecto.c **** 			}
 333:../proyecto.c **** 			if ( tsPressedMsg.langFlag )
 3371              		.loc 1 333 0
 3372 0df0 84309FE5 		ldr	r3, .L69+36
 3373 0df4 0130D3E5 		ldrb	r3, [r3, #1]	@ zero_extendqisi2
 3374 0df8 000053E3 		cmp	r3, #0
 3375 0dfc 3001000A 		beq	.L67
 334:../proyecto.c **** 			{
 335:../proyecto.c **** 				tsPressedMsg.flag = FALSE;
 3376              		.loc 1 335 0
 3377 0e00 74309FE5 		ldr	r3, .L69+36
 3378 0e04 0020A0E3 		mov	r2, #0
 3379 0e08 0020C3E5 		strb	r2, [r3, #0]
 336:../proyecto.c **** 				tsPressedMsg.langFlag = FALSE;
 3380              		.loc 1 336 0
 3381 0e0c 68309FE5 		ldr	r3, .L69+36
 3382 0e10 0020A0E3 		mov	r2, #0
 3383 0e14 0120C3E5 		strb	r2, [r3, #1]
 337:../proyecto.c **** 				prevState = state;
 3384              		.loc 1 337 0
 3385 0e18 64309FE5 		ldr	r3, .L69+44
 3386 0e1c 0020D3E5 		ldrb	r2, [r3, #0]	@ zero_extendqisi2
 3387 0e20 58309FE5 		ldr	r3, .L69+40
 3388 0e24 0020C3E5 		strb	r2, [r3, #0]
 338:../proyecto.c **** 				plotState(language,placeSelected);
 3389              		.loc 1 338 0
 3390 0e28 40309FE5 		ldr	r3, .L69+24
 3391 0e2c 0030D3E5 		ldrb	r3, [r3, #0]	@ zero_extendqisi2
 3392 0e30 0000A0E3 		mov	r0, #0
 3393 0e34 0310A0E1 		mov	r1, r3
 3394 0e38 FEFFFFEB 		bl	plotState
 339:../proyecto.c **** 				state = language;
 3395              		.loc 1 339 0
 3396 0e3c 40309FE5 		ldr	r3, .L69+44
 3397 0e40 0020A0E3 		mov	r2, #0
 3398 0e44 0020C3E5 		strb	r2, [r3, #0]
 340:../proyecto.c **** 				ticks = 500;
 3399              		.loc 1 340 0
 3400 0e48 24309FE5 		ldr	r3, .L69+28
 3401 0e4c 7D2FA0E3 		mov	r2, #500
 3402 0e50 B020C3E1 		strh	r2, [r3, #0]	@ movhi
 341:../proyecto.c **** 			}
 342:../proyecto.c **** 			break;
 3403              		.loc 1 342 0
 3404 0e54 1D0100EA 		b	.L5
 3405              	.L70:
 3406              		.align	2
 3407              	.L69:
 3408 0e58 03000000 		.word	init.4361
 3409 0e5c 10000000 		.word	og_deadline.4365
 3410 0e60 00000000 		.word	ticketMsg
 3411 0e64 00000000 		.word	coinsMoverMsg
 3412 0e68 18000000 		.word	licPlateComp.4363
 3413 0e6c 00000000 		.word	parking
 3414 0e70 0A000000 		.word	placeSelected.4364
 3415 0e74 0C000000 		.word	ticks.4362
 3416 0e78 00000000 		.word	kpPressedMsg
 3417 0e7c 00000000 		.word	tsPressedMsg
 3418 0e80 0E000000 		.word	prevState.4367
 3419 0e84 0B000000 		.word	state.4366
 3420              	.L16:
 343:../proyecto.c ****         case error:
 344:../proyecto.c **** 			if( !(--ticks) )                           /* Decrementa ticks y chequea si ha permanecido en es
 3421              		.loc 1 344 0
 3422 0e88 1C301FE5 		ldr	r3, .L69+28
 3423 0e8c B030D3E1 		ldrh	r3, [r3, #0]
 3424 0e90 013043E2 		sub	r3, r3, #1
 3425 0e94 0338A0E1 		mov	r3, r3, asl #16
 3426 0e98 2328A0E1 		mov	r2, r3, lsr #16
 3427 0e9c 30301FE5 		ldr	r3, .L69+28
 3428 0ea0 B020C3E1 		strh	r2, [r3, #0]	@ movhi
 3429 0ea4 38301FE5 		ldr	r3, .L69+28
 3430 0ea8 B030D3E1 		ldrh	r3, [r3, #0]
 3431 0eac 000053E3 		cmp	r3, #0
 3432 0eb0 0700001A 		bne	.L50
 345:../proyecto.c **** 			{
 346:../proyecto.c **** 				plotState(waiting,placeSelected);                          /* Visualiza pantalla inicial */
 3433              		.loc 1 346 0
 3434 0eb4 4C301FE5 		ldr	r3, .L69+24
 3435 0eb8 0030D3E5 		ldrb	r3, [r3, #0]	@ zero_extendqisi2
 3436 0ebc 0100A0E3 		mov	r0, #1
 3437 0ec0 0310A0E1 		mov	r1, r3
 3438 0ec4 FEFFFFEB 		bl	plotState
 347:../proyecto.c **** 				state = waiting;                      /* Salta al estado demo_waiting */
 3439              		.loc 1 347 0
 3440 0ec8 4C301FE5 		ldr	r3, .L69+44
 3441 0ecc 0120A0E3 		mov	r2, #1
 3442 0ed0 0020C3E5 		strb	r2, [r3, #0]
 3443              	.L50:
 348:../proyecto.c **** 
 349:../proyecto.c **** 			}
 350:../proyecto.c **** 			if( kpPressedMsg.flag )                /* Chequea si se ha introducido una moneda (mensaje recib
 3444              		.loc 1 350 0
 3445 0ed4 64301FE5 		ldr	r3, .L69+32
 3446 0ed8 0030D3E5 		ldrb	r3, [r3, #0]	@ zero_extendqisi2
 3447 0edc 000053E3 		cmp	r3, #0
 3448 0ee0 0800000A 		beq	.L51
 351:../proyecto.c **** 			{
 352:../proyecto.c **** 				kpPressedMsg.flag = FALSE;              /* Marca el mensaje como leido */
 3449              		.loc 1 352 0
 3450 0ee4 74301FE5 		ldr	r3, .L69+32
 3451 0ee8 0020A0E3 		mov	r2, #0
 3452 0eec 0020C3E5 		strb	r2, [r3, #0]
 353:../proyecto.c **** 				coinsMoverMsg.accept = FALSE;              /* Envia un mensaje para que la moneda se devuelva *
 3453              		.loc 1 353 0
 3454 0ef0 94301FE5 		ldr	r3, .L69+12
 3455 0ef4 0020A0E3 		mov	r2, #0
 3456 0ef8 0120C3E5 		strb	r2, [r3, #1]
 354:../proyecto.c **** 				coinsMoverMsg.flag   = TRUE;
 3457              		.loc 1 354 0
 3458 0efc A0301FE5 		ldr	r3, .L69+12
 3459 0f00 0120A0E3 		mov	r2, #1
 3460 0f04 0020C3E5 		strb	r2, [r3, #0]
 3461              	.L51:
 355:../proyecto.c **** 			}
 356:../proyecto.c **** 			if( tsPressedMsg.flag && !tsPressedMsg.langFlag )                    /* Chequea si se ha pulsado
 3462              		.loc 1 356 0
 3463 0f08 94301FE5 		ldr	r3, .L69+36
 3464 0f0c 0030D3E5 		ldrb	r3, [r3, #0]	@ zero_extendqisi2
 3465 0f10 000053E3 		cmp	r3, #0
 3466 0f14 2E00000A 		beq	.L52
 3467              		.loc 1 356 0 is_stmt 0 discriminator 1
 3468 0f18 A4301FE5 		ldr	r3, .L69+36
 3469 0f1c 0130D3E5 		ldrb	r3, [r3, #1]	@ zero_extendqisi2
 3470 0f20 000053E3 		cmp	r3, #0
 3471 0f24 2A00001A 		bne	.L52
 357:../proyecto.c **** 			{
 358:../proyecto.c **** 				tsPressedMsg.flag = FALSE;    /* Marca el mensaje como leido */
 3472              		.loc 1 358 0 is_stmt 1
 3473 0f28 B4301FE5 		ldr	r3, .L69+36
 3474 0f2c 0020A0E3 		mov	r2, #0
 3475 0f30 0020C3E5 		strb	r2, [r3, #0]
 359:../proyecto.c **** 				if(parking[placeSelected].error == SELEC_ERROR && exitSol()){
 3476              		.loc 1 359 0
 3477 0f34 CC301FE5 		ldr	r3, .L69+24
 3478 0f38 0030D3E5 		ldrb	r3, [r3, #0]	@ zero_extendqisi2
 3479 0f3c 0320A0E1 		mov	r2, r3
 3480 0f40 DC101FE5 		ldr	r1, .L69+20
 3481 0f44 0830A0E3 		mov	r3, #8
 3482 0f48 0222A0E1 		mov	r2, r2, asl #4
 3483 0f4c 022081E0 		add	r2, r1, r2
 3484 0f50 033082E0 		add	r3, r2, r3
 3485 0f54 0630D3E5 		ldrb	r3, [r3, #6]	@ zero_extendqisi2
 3486 0f58 033CA0E1 		mov	r3, r3, asl #24
 3487 0f5c 433CA0E1 		mov	r3, r3, asr #24
 3488 0f60 030053E3 		cmp	r3, #3
 3489 0f64 0F00001A 		bne	.L53
 3490              		.loc 1 359 0 is_stmt 0 discriminator 1
 3491 0f68 FEFFFFEB 		bl	exitSol
 3492 0f6c 0030A0E1 		mov	r3, r0
 3493 0f70 000053E3 		cmp	r3, #0
 3494 0f74 0B00000A 		beq	.L53
 360:../proyecto.c **** 					licPlateComp = 0;
 3495              		.loc 1 360 0 is_stmt 1
 3496 0f78 18311FE5 		ldr	r3, .L69+16
 3497 0f7c 0020A0E3 		mov	r2, #0
 3498 0f80 B020C3E1 		strh	r2, [r3, #0]	@ movhi
 361:../proyecto.c **** 					plotState(exit,placeSelected);
 3499              		.loc 1 361 0
 3500 0f84 1C311FE5 		ldr	r3, .L69+24
 3501 0f88 0030D3E5 		ldrb	r3, [r3, #0]	@ zero_extendqisi2
 3502 0f8c 0700A0E3 		mov	r0, #7
 3503 0f90 0310A0E1 		mov	r1, r3
 3504 0f94 FEFFFFEB 		bl	plotState
 362:../proyecto.c **** 					state = exit;
 3505              		.loc 1 362 0
 3506 0f98 1C311FE5 		ldr	r3, .L69+44
 3507 0f9c 0720A0E3 		mov	r2, #7
 3508 0fa0 0020C3E5 		strb	r2, [r3, #0]
 3509 0fa4 070000EA 		b	.L54
 3510              	.L53:
 363:../proyecto.c **** 				} else {
 364:../proyecto.c **** 					plotState(waiting,placeSelected);                              /* vuelve al welcome screen*/
 3511              		.loc 1 364 0
 3512 0fa8 40311FE5 		ldr	r3, .L69+24
 3513 0fac 0030D3E5 		ldrb	r3, [r3, #0]	@ zero_extendqisi2
 3514 0fb0 0100A0E3 		mov	r0, #1
 3515 0fb4 0310A0E1 		mov	r1, r3
 3516 0fb8 FEFFFFEB 		bl	plotState
 365:../proyecto.c **** 					state = waiting;
 3517              		.loc 1 365 0
 3518 0fbc 40311FE5 		ldr	r3, .L69+44
 3519 0fc0 0120A0E3 		mov	r2, #1
 3520 0fc4 0020C3E5 		strb	r2, [r3, #0]
 3521              	.L54:
 366:../proyecto.c **** 				}
 367:../proyecto.c **** 				ticks = 500;                               /* ... en el que debera permanecer un maximo de 500 
 3522              		.loc 1 367 0
 3523 0fc8 5C311FE5 		ldr	r3, .L69+28
 3524 0fcc 7D2FA0E3 		mov	r2, #500
 3525 0fd0 B020C3E1 		strh	r2, [r3, #0]	@ movhi
 3526              	.L52:
 368:../proyecto.c **** 			}
 369:../proyecto.c **** 			if ( tsPressedMsg.langFlag )
 3527              		.loc 1 369 0
 3528 0fd4 60311FE5 		ldr	r3, .L69+36
 3529 0fd8 0130D3E5 		ldrb	r3, [r3, #1]	@ zero_extendqisi2
 3530 0fdc 000053E3 		cmp	r3, #0
 3531 0fe0 B900000A 		beq	.L68
 370:../proyecto.c **** 			{
 371:../proyecto.c **** 				tsPressedMsg.flag = FALSE;
 3532              		.loc 1 371 0
 3533 0fe4 70311FE5 		ldr	r3, .L69+36
 3534 0fe8 0020A0E3 		mov	r2, #0
 3535 0fec 0020C3E5 		strb	r2, [r3, #0]
 372:../proyecto.c **** 				tsPressedMsg.langFlag = FALSE;
 3536              		.loc 1 372 0
 3537 0ff0 7C311FE5 		ldr	r3, .L69+36
 3538 0ff4 0020A0E3 		mov	r2, #0
 3539 0ff8 0120C3E5 		strb	r2, [r3, #1]
 373:../proyecto.c **** 				prevState = state;
 3540              		.loc 1 373 0
 3541 0ffc 80311FE5 		ldr	r3, .L69+44
 3542 1000 0020D3E5 		ldrb	r2, [r3, #0]	@ zero_extendqisi2
 3543 1004 8C311FE5 		ldr	r3, .L69+40
 3544 1008 0020C3E5 		strb	r2, [r3, #0]
 374:../proyecto.c **** 				plotLangSelScreen();
 3545              		.loc 1 374 0
 3546 100c FEFFFFEB 		bl	plotLangSelScreen
 375:../proyecto.c **** 				state = language;
 3547              		.loc 1 375 0
 3548 1010 94311FE5 		ldr	r3, .L69+44
 3549 1014 0020A0E3 		mov	r2, #0
 3550 1018 0020C3E5 		strb	r2, [r3, #0]
 376:../proyecto.c **** 			}
 377:../proyecto.c **** 			break;
 3551              		.loc 1 377 0
 3552 101c AB0000EA 		b	.L5
 3553              	.L17:
 378:../proyecto.c ****         case exit:
 379:../proyecto.c ****         	kpPressedMsg.licPlateInput = TRUE;							//activa el modo matricula
 3554              		.loc 1 379 0
 3555 1020 B0311FE5 		ldr	r3, .L69+32
 3556 1024 0120A0E3 		mov	r2, #1
 3557 1028 0120C3E5 		strb	r2, [r3, #1]
 380:../proyecto.c ****         	if( !(--ticks) )                           /* Decrementa ticks y chequea si ha permanecido
 3558              		.loc 1 380 0
 3559 102c C0311FE5 		ldr	r3, .L69+28
 3560 1030 B030D3E1 		ldrh	r3, [r3, #0]
 3561 1034 013043E2 		sub	r3, r3, #1
 3562 1038 0338A0E1 		mov	r3, r3, asl #16
 3563 103c 2328A0E1 		mov	r2, r3, lsr #16
 3564 1040 D4311FE5 		ldr	r3, .L69+28
 3565 1044 B020C3E1 		strh	r2, [r3, #0]	@ movhi
 3566 1048 DC311FE5 		ldr	r3, .L69+28
 3567 104c B030D3E1 		ldrh	r3, [r3, #0]
 3568 1050 000053E3 		cmp	r3, #0
 3569 1054 0A00001A 		bne	.L56
 381:../proyecto.c **** 			{
 382:../proyecto.c **** 				plotState(waiting,placeSelected);                          /* Visualiza pantalla inicial */
 3570              		.loc 1 382 0
 3571 1058 F0311FE5 		ldr	r3, .L69+24
 3572 105c 0030D3E5 		ldrb	r3, [r3, #0]	@ zero_extendqisi2
 3573 1060 0100A0E3 		mov	r0, #1
 3574 1064 0310A0E1 		mov	r1, r3
 3575 1068 FEFFFFEB 		bl	plotState
 383:../proyecto.c **** 				state = waiting;                      /* Salta al estado demo_waiting */
 3576              		.loc 1 383 0
 3577 106c F0311FE5 		ldr	r3, .L69+44
 3578 1070 0120A0E3 		mov	r2, #1
 3579 1074 0020C3E5 		strb	r2, [r3, #0]
 384:../proyecto.c **** 				kpPressedMsg.licPlateInput = FALSE;			//limpio el flag del keypress porque voy a cambiar de est
 3580              		.loc 1 384 0
 3581 1078 08321FE5 		ldr	r3, .L69+32
 3582 107c 0020A0E3 		mov	r2, #0
 3583 1080 0120C3E5 		strb	r2, [r3, #1]
 3584              	.L56:
 385:../proyecto.c **** 			}
 386:../proyecto.c **** 			if( kpPressedMsg.flag )                /* Chequea si se ha introducido una moneda (mensaje recib
 3585              		.loc 1 386 0
 3586 1084 14321FE5 		ldr	r3, .L69+32
 3587 1088 0030D3E5 		ldrb	r3, [r3, #0]	@ zero_extendqisi2
 3588 108c 000053E3 		cmp	r3, #0
 3589 1090 1200000A 		beq	.L57
 387:../proyecto.c **** 			{
 388:../proyecto.c **** 				kpPressedMsg.flag = FALSE;              /* Marca el mensaje como leido */
 3590              		.loc 1 388 0
 3591 1094 24321FE5 		ldr	r3, .L69+32
 3592 1098 0020A0E3 		mov	r2, #0
 3593 109c 0020C3E5 		strb	r2, [r3, #0]
 389:../proyecto.c **** 				if(getLicPlate(&licPlateComp))
 3594              		.loc 1 389 0
 3595 10a0 40021FE5 		ldr	r0, .L69+16
 3596 10a4 FEFFFFEB 		bl	getLicPlate
 3597 10a8 0030A0E1 		mov	r3, r0
 3598 10ac 000053E3 		cmp	r3, #0
 3599 10b0 0700000A 		beq	.L58
 390:../proyecto.c **** 				{
 391:../proyecto.c **** 					plotLicPlateUpdate(licPlateComp);
 3600              		.loc 1 391 0
 3601 10b4 54321FE5 		ldr	r3, .L69+16
 3602 10b8 B030D3E1 		ldrh	r3, [r3, #0]
 3603 10bc 0338A0E1 		mov	r3, r3, asl #16
 3604 10c0 2338A0E1 		mov	r3, r3, lsr #16
 3605 10c4 0338A0E1 		mov	r3, r3, asl #16
 3606 10c8 4338A0E1 		mov	r3, r3, asr #16
 3607 10cc 0300A0E1 		mov	r0, r3
 3608 10d0 FEFFFFEB 		bl	plotLicPlateUpdate
 3609              	.L58:
 392:../proyecto.c **** 				}
 393:../proyecto.c **** 				ticks=500;
 3610              		.loc 1 393 0
 3611 10d4 68321FE5 		ldr	r3, .L69+28
 3612 10d8 7D2FA0E3 		mov	r2, #500
 3613 10dc B020C3E1 		strh	r2, [r3, #0]	@ movhi
 3614              	.L57:
 394:../proyecto.c **** 			}
 395:../proyecto.c **** 			if( tsPressedMsg.flag && !tsPressedMsg.langFlag )                    /* Chequea si se ha pulsado
 3615              		.loc 1 395 0
 3616 10e0 6C321FE5 		ldr	r3, .L69+36
 3617 10e4 0030D3E5 		ldrb	r3, [r3, #0]	@ zero_extendqisi2
 3618 10e8 000053E3 		cmp	r3, #0
 3619 10ec 5400000A 		beq	.L59
 3620              		.loc 1 395 0 is_stmt 0 discriminator 1
 3621 10f0 7C321FE5 		ldr	r3, .L69+36
 3622 10f4 0130D3E5 		ldrb	r3, [r3, #1]	@ zero_extendqisi2
 3623 10f8 000053E3 		cmp	r3, #0
 3624 10fc 5000001A 		bne	.L59
 396:../proyecto.c **** 			{
 397:../proyecto.c **** 				kpPressedMsg.licPlateInput = FALSE;			//limpio el flag del keypress porque voy a cambiar de est
 3625              		.loc 1 397 0 is_stmt 1
 3626 1100 90321FE5 		ldr	r3, .L69+32
 3627 1104 0020A0E3 		mov	r2, #0
 3628 1108 0120C3E5 		strb	r2, [r3, #1]
 398:../proyecto.c **** 				tsPressedMsg.flag = FALSE;
 3629              		.loc 1 398 0
 3630 110c 98321FE5 		ldr	r3, .L69+36
 3631 1110 0020A0E3 		mov	r2, #0
 3632 1114 0020C3E5 		strb	r2, [r3, #0]
 399:../proyecto.c **** 				if ( licPlateComp == parking[placeSelected].licPlate)
 3633              		.loc 1 399 0
 3634 1118 B0321FE5 		ldr	r3, .L69+24
 3635 111c 0030D3E5 		ldrb	r3, [r3, #0]	@ zero_extendqisi2
 3636 1120 0320A0E1 		mov	r2, r3
 3637 1124 C0121FE5 		ldr	r1, .L69+20
 3638 1128 0830A0E3 		mov	r3, #8
 3639 112c 0222A0E1 		mov	r2, r2, asl #4
 3640 1130 022081E0 		add	r2, r1, r2
 3641 1134 033082E0 		add	r3, r2, r3
 3642 1138 B220D3E1 		ldrh	r2, [r3, #2]
 3643 113c DC321FE5 		ldr	r3, .L69+16
 3644 1140 B030D3E1 		ldrh	r3, [r3, #0]
 3645 1144 030052E1 		cmp	r2, r3
 3646 1148 2800001A 		bne	.L60
 400:../proyecto.c **** 				{
 401:../proyecto.c **** 					parking[placeSelected].credit = 0;
 3647              		.loc 1 401 0
 3648 114c E4321FE5 		ldr	r3, .L69+24
 3649 1150 0030D3E5 		ldrb	r3, [r3, #0]	@ zero_extendqisi2
 3650 1154 0320A0E1 		mov	r2, r3
 3651 1158 F4121FE5 		ldr	r1, .L69+20
 3652 115c 0830A0E3 		mov	r3, #8
 3653 1160 0222A0E1 		mov	r2, r2, asl #4
 3654 1164 022081E0 		add	r2, r1, r2
 3655 1168 033082E0 		add	r3, r2, r3
 3656 116c 0020A0E3 		mov	r2, #0
 3657 1170 B420C3E1 		strh	r2, [r3, #4]	@ movhi
 402:../proyecto.c **** 					parking[placeSelected].free = TRUE;
 3658              		.loc 1 402 0
 3659 1174 0C331FE5 		ldr	r3, .L69+24
 3660 1178 0030D3E5 		ldrb	r3, [r3, #0]	@ zero_extendqisi2
 3661 117c 0320A0E1 		mov	r2, r3
 3662 1180 1C131FE5 		ldr	r1, .L69+20
 3663 1184 0130A0E3 		mov	r3, #1
 3664 1188 0222A0E1 		mov	r2, r2, asl #4
 3665 118c 022081E0 		add	r2, r1, r2
 3666 1190 033082E0 		add	r3, r2, r3
 3667 1194 0120A0E3 		mov	r2, #1
 3668 1198 0020C3E5 		strb	r2, [r3, #0]
 403:../proyecto.c **** 					parking[placeSelected].licPlate = 0;
 3669              		.loc 1 403 0
 3670 119c 34331FE5 		ldr	r3, .L69+24
 3671 11a0 0030D3E5 		ldrb	r3, [r3, #0]	@ zero_extendqisi2
 3672 11a4 0320A0E1 		mov	r2, r3
 3673 11a8 44131FE5 		ldr	r1, .L69+20
 3674 11ac 0830A0E3 		mov	r3, #8
 3675 11b0 0222A0E1 		mov	r2, r2, asl #4
 3676 11b4 022081E0 		add	r2, r1, r2
 3677 11b8 033082E0 		add	r3, r2, r3
 3678 11bc 0020A0E3 		mov	r2, #0
 3679 11c0 B220C3E1 		strh	r2, [r3, #2]	@ movhi
 404:../proyecto.c **** 					plotExitSuccess(parking[placeSelected]);            /* vuelve al welcome screen*/
 3680              		.loc 1 404 0
 3681 11c4 5C331FE5 		ldr	r3, .L69+24
 3682 11c8 0030D3E5 		ldrb	r3, [r3, #0]	@ zero_extendqisi2
 3683 11cc 68231FE5 		ldr	r2, .L69+20
 3684 11d0 0332A0E1 		mov	r3, r3, asl #4
 3685 11d4 033082E0 		add	r3, r2, r3
 3686 11d8 0F0093E8 		ldmia	r3, {r0, r1, r2, r3}
 3687 11dc FEFFFFEB 		bl	plotExitSuccess
 405:../proyecto.c **** 					state = success;
 3688              		.loc 1 405 0
 3689 11e0 64331FE5 		ldr	r3, .L69+44
 3690 11e4 0520A0E3 		mov	r2, #5
 3691 11e8 0020C3E5 		strb	r2, [r3, #0]
 3692 11ec 110000EA 		b	.L61
 3693              	.L60:
 406:../proyecto.c **** 				} else {
 407:../proyecto.c **** 					parking[placeSelected].error = EXIT_ERROR;
 3694              		.loc 1 407 0
 3695 11f0 88331FE5 		ldr	r3, .L69+24
 3696 11f4 0030D3E5 		ldrb	r3, [r3, #0]	@ zero_extendqisi2
 3697 11f8 0320A0E1 		mov	r2, r3
 3698 11fc 98131FE5 		ldr	r1, .L69+20
 3699 1200 0830A0E3 		mov	r3, #8
 3700 1204 0222A0E1 		mov	r2, r2, asl #4
 3701 1208 022081E0 		add	r2, r1, r2
 3702 120c 033082E0 		add	r3, r2, r3
 3703 1210 0120A0E3 		mov	r2, #1
 3704 1214 0620C3E5 		strb	r2, [r3, #6]
 408:../proyecto.c **** 					plotState(error,placeSelected);                              /* vuelve al welcome screen*/
 3705              		.loc 1 408 0
 3706 1218 B0331FE5 		ldr	r3, .L69+24
 3707 121c 0030D3E5 		ldrb	r3, [r3, #0]	@ zero_extendqisi2
 3708 1220 0600A0E3 		mov	r0, #6
 3709 1224 0310A0E1 		mov	r1, r3
 3710 1228 FEFFFFEB 		bl	plotState
 409:../proyecto.c **** 					state = error;
 3711              		.loc 1 409 0
 3712 122c B0331FE5 		ldr	r3, .L69+44
 3713 1230 0620A0E3 		mov	r2, #6
 3714 1234 0020C3E5 		strb	r2, [r3, #0]
 3715              	.L61:
 410:../proyecto.c **** 				}
 411:../proyecto.c **** 				ticks = 500;                               /* ... en el que debera permanecer un maximo de 500 
 3716              		.loc 1 411 0
 3717 1238 CC331FE5 		ldr	r3, .L69+28
 3718 123c 7D2FA0E3 		mov	r2, #500
 3719 1240 B020C3E1 		strh	r2, [r3, #0]	@ movhi
 3720              	.L59:
 412:../proyecto.c **** 			}
 413:../proyecto.c **** 			if ( tsPressedMsg.langFlag )
 3721              		.loc 1 413 0
 3722 1244 D0331FE5 		ldr	r3, .L69+36
 3723 1248 0130D3E5 		ldrb	r3, [r3, #1]	@ zero_extendqisi2
 3724 124c 000053E3 		cmp	r3, #0
 3725 1250 1E00000A 		beq	.L5
 414:../proyecto.c **** 			{
 415:../proyecto.c **** 				kpPressedMsg.licPlateInput = FALSE;			//limpio el flag del keypress porque voy a cambiar de est
 3726              		.loc 1 415 0
 3727 1254 E4331FE5 		ldr	r3, .L69+32
 3728 1258 0020A0E3 		mov	r2, #0
 3729 125c 0120C3E5 		strb	r2, [r3, #1]
 416:../proyecto.c **** 				tsPressedMsg.flag = FALSE;
 3730              		.loc 1 416 0
 3731 1260 EC331FE5 		ldr	r3, .L69+36
 3732 1264 0020A0E3 		mov	r2, #0
 3733 1268 0020C3E5 		strb	r2, [r3, #0]
 417:../proyecto.c **** 				tsPressedMsg.langFlag = FALSE;
 3734              		.loc 1 417 0
 3735 126c F8331FE5 		ldr	r3, .L69+36
 3736 1270 0020A0E3 		mov	r2, #0
 3737 1274 0120C3E5 		strb	r2, [r3, #1]
 418:../proyecto.c **** 				prevState = state;
 3738              		.loc 1 418 0
 3739 1278 FC331FE5 		ldr	r3, .L69+44
 3740 127c 0020D3E5 		ldrb	r2, [r3, #0]	@ zero_extendqisi2
 3741 1280 08341FE5 		ldr	r3, .L69+40
 3742 1284 0020C3E5 		strb	r2, [r3, #0]
 419:../proyecto.c **** 				plotLangSelScreen();
 3743              		.loc 1 419 0
 3744 1288 FEFFFFEB 		bl	plotLangSelScreen
 420:../proyecto.c **** 				state = language;
 3745              		.loc 1 420 0
 3746 128c 10341FE5 		ldr	r3, .L69+44
 3747 1290 0020A0E3 		mov	r2, #0
 3748 1294 0020C3E5 		strb	r2, [r3, #0]
 3749 1298 0C0000EA 		b	.L5
 3750              	.L62:
 144:../proyecto.c **** 			break;
 3751              		.loc 1 144 0
 3752 129c 0000A0E1 		mov	r0, r0	@ nop
 3753 12a0 0A0000EA 		b	.L5
 3754              	.L63:
 168:../proyecto.c ****             break;
 3755              		.loc 1 168 0
 3756 12a4 0000A0E1 		mov	r0, r0	@ nop
 3757 12a8 080000EA 		b	.L5
 3758              	.L64:
 211:../proyecto.c ****         	break;
 3759              		.loc 1 211 0
 3760 12ac 0000A0E1 		mov	r0, r0	@ nop
 3761 12b0 060000EA 		b	.L5
 3762              	.L65:
 268:../proyecto.c ****         	break;
 3763              		.loc 1 268 0
 3764 12b4 0000A0E1 		mov	r0, r0	@ nop
 3765 12b8 040000EA 		b	.L5
 3766              	.L66:
 313:../proyecto.c **** 			break;
 3767              		.loc 1 313 0
 3768 12bc 0000A0E1 		mov	r0, r0	@ nop
 3769 12c0 020000EA 		b	.L5
 3770              	.L67:
 342:../proyecto.c **** 			break;
 3771              		.loc 1 342 0
 3772 12c4 0000A0E1 		mov	r0, r0	@ nop
 3773 12c8 000000EA 		b	.L5
 3774              	.L68:
 377:../proyecto.c **** 			break;
 3775              		.loc 1 377 0
 3776 12cc 0000A0E1 		mov	r0, r0	@ nop
 3777              	.L5:
 421:../proyecto.c **** 			}
 422:../proyecto.c ****     }
 423:../proyecto.c **** }
 3778              		.loc 1 423 0
 3779 12d0 0CD04BE2 		sub	sp, fp, #12
 3780 12d4 00689DE8 		ldmfd	sp, {fp, sp, lr}
 3781 12d8 1EFF2FE1 		bx	lr
 3782              		.cfi_endproc
 3783              	.LFE1:
 3785              		.align	2
 3786              		.global	ticketPrinterTask
 3788              	ticketPrinterTask:
 3789              	.LFB2:
 424:../proyecto.c **** /* 
 425:../proyecto.c **** ** Emula el comportamiento de la impresora de tickets:
 426:../proyecto.c **** **   Cada segundo muestrea si ha recibido un mensaje de la tarea principal enviar a traves de la UA
 427:../proyecto.c **** */
 428:../proyecto.c **** void ticketPrinterTask( void )
 429:../proyecto.c **** {
 3790              		.loc 1 429 0
 3791              		.cfi_startproc
 3792              		@ Function supports interworking.
 3793              		@ args = 0, pretend = 0, frame = 0
 3794              		@ frame_needed = 1, uses_anonymous_args = 0
 3795 12dc 0DC0A0E1 		mov	ip, sp
 3796              	.LCFI4:
 3797              		.cfi_def_cfa_register 12
 3798 12e0 00D82DE9 		stmfd	sp!, {fp, ip, lr, pc}
 3799 12e4 04B04CE2 		sub	fp, ip, #4
 3800              		.cfi_offset 14, -8
 3801              		.cfi_offset 13, -12
 3802              		.cfi_offset 11, -16
 3803              	.LCFI5:
 3804              		.cfi_def_cfa 11, 4
 430:../proyecto.c ****    if(!ticketMsg.flag){
 3805              		.loc 1 430 0
 3806 12e8 90309FE5 		ldr	r3, .L75
 3807 12ec 0030D3E5 		ldrb	r3, [r3, #0]	@ zero_extendqisi2
 3808 12f0 000053E3 		cmp	r3, #0
 3809 12f4 1D00000A 		beq	.L74
 3810              	.L72:
 431:../proyecto.c **** 	   return;
 432:../proyecto.c ****    }
 433:../proyecto.c ****    ticketMsg.flag = FALSE;
 3811              		.loc 1 433 0
 3812 12f8 80309FE5 		ldr	r3, .L75
 3813 12fc 0020A0E3 		mov	r2, #0
 3814 1300 0020C3E5 		strb	r2, [r3, #0]
 434:../proyecto.c ****    makeTicket(ticketMsg.place);
 3815              		.loc 1 434 0
 3816 1304 74309FE5 		ldr	r3, .L75
 3817 1308 B220D3E1 		ldrh	r2, [r3, #2]
 3818 130c B410D3E1 		ldrh	r1, [r3, #4]
 3819 1310 0118A0E1 		mov	r1, r1, asl #16
 3820 1314 022081E1 		orr	r2, r1, r2
 3821 1318 0000A0E3 		mov	r0, #0
 3822 131c 0200A0E1 		mov	r0, r2
 3823 1320 B620D3E1 		ldrh	r2, [r3, #6]
 3824 1324 B810D3E1 		ldrh	r1, [r3, #8]
 3825 1328 0118A0E1 		mov	r1, r1, asl #16
 3826 132c 022081E1 		orr	r2, r1, r2
 3827 1330 0010A0E3 		mov	r1, #0
 3828 1334 0210A0E1 		mov	r1, r2
 3829 1338 BA20D3E1 		ldrh	r2, [r3, #10]
 3830 133c BCC0D3E1 		ldrh	ip, [r3, #12]
 3831 1340 0CC8A0E1 		mov	ip, ip, asl #16
 3832 1344 02C08CE1 		orr	ip, ip, r2
 3833 1348 0020A0E3 		mov	r2, #0
 3834 134c 0C20A0E1 		mov	r2, ip
 3835 1350 BEC0D3E1 		ldrh	ip, [r3, #14]
 3836 1354 B031D3E1 		ldrh	r3, [r3, #16]
 3837 1358 0338A0E1 		mov	r3, r3, asl #16
 3838 135c 0CC083E1 		orr	ip, r3, ip
 3839 1360 0030A0E3 		mov	r3, #0
 3840 1364 0C30A0E1 		mov	r3, ip
 3841 1368 FEFFFFEB 		bl	makeTicket
 3842 136c 000000EA 		b	.L71
 3843              	.L74:
 431:../proyecto.c **** 	   return;
 3844              		.loc 1 431 0
 3845 1370 0000A0E1 		mov	r0, r0	@ nop
 3846              	.L71:
 435:../proyecto.c **** }
 3847              		.loc 1 435 0
 3848 1374 0CD04BE2 		sub	sp, fp, #12
 3849 1378 00689DE8 		ldmfd	sp, {fp, sp, lr}
 3850 137c 1EFF2FE1 		bx	lr
 3851              	.L76:
 3852              		.align	2
 3853              	.L75:
 3854 1380 00000000 		.word	ticketMsg
 3855              		.cfi_endproc
 3856              	.LFE2:
 3858              		.align	2
 3859              		.global	clockTask
 3861              	clockTask:
 3862              	.LFB3:
 436:../proyecto.c **** 
 437:../proyecto.c **** /* 
 438:../proyecto.c **** ** Cada segundo visualiza la fecha/hora en la pantalla y libera aquellas plazas cuya hora de finali
 439:../proyecto.c **** */
 440:../proyecto.c **** void clockTask( void )  
 441:../proyecto.c **** {
 3863              		.loc 1 441 0
 3864              		.cfi_startproc
 3865              		@ Function supports interworking.
 3866              		@ args = 0, pretend = 0, frame = 0
 3867              		@ frame_needed = 1, uses_anonymous_args = 0
 3868 1384 0DC0A0E1 		mov	ip, sp
 3869              	.LCFI6:
 3870              		.cfi_def_cfa_register 12
 3871 1388 00D82DE9 		stmfd	sp!, {fp, ip, lr, pc}
 3872 138c 04B04CE2 		sub	fp, ip, #4
 3873              		.cfi_offset 14, -8
 3874              		.cfi_offset 13, -12
 3875              		.cfi_offset 11, -16
 3876              	.LCFI7:
 3877              		.cfi_def_cfa 11, 4
 442:../proyecto.c **** 	plotTime();
 3878              		.loc 1 442 0
 3879 1390 FEFFFFEB 		bl	plotTime
 443:../proyecto.c **** }
 3880              		.loc 1 443 0
 3881 1394 0CD04BE2 		sub	sp, fp, #12
 3882 1398 00689DE8 		ldmfd	sp, {fp, sp, lr}
 3883 139c 1EFF2FE1 		bx	lr
 3884              		.cfi_endproc
 3885              	.LFE3:
 3887              		.align	2
 3888              		.global	tsScanTask
 3890              	tsScanTask:
 3891              	.LFB4:
 444:../proyecto.c **** 
 445:../proyecto.c **** /* 
 446:../proyecto.c **** ** Cada 50 ms muestrea la touchscreen y envia un mensaje a la tarea principal con la posicion del l
 447:../proyecto.c **** */
 448:../proyecto.c **** void tsScanTask( void )  
 449:../proyecto.c **** {
 3892              		.loc 1 449 0
 3893              		.cfi_startproc
 3894              		@ Function supports interworking.
 3895              		@ args = 0, pretend = 0, frame = 0
 3896              		@ frame_needed = 1, uses_anonymous_args = 0
 3897 13a0 0DC0A0E1 		mov	ip, sp
 3898              	.LCFI8:
 3899              		.cfi_def_cfa_register 12
 3900 13a4 00D82DE9 		stmfd	sp!, {fp, ip, lr, pc}
 3901 13a8 04B04CE2 		sub	fp, ip, #4
 3902              		.cfi_offset 14, -8
 3903              		.cfi_offset 13, -12
 3904              		.cfi_offset 11, -16
 3905              	.LCFI9:
 3906              		.cfi_def_cfa 11, 4
 450:../proyecto.c ****     static boolean init = TRUE;
 451:../proyecto.c ****     static enum { wait_keydown, scan, wait_keyup } state;
 452:../proyecto.c ****     
 453:../proyecto.c ****     if( init )
 3907              		.loc 1 453 0
 3908 13ac F4309FE5 		ldr	r3, .L89
 3909 13b0 0030D3E5 		ldrb	r3, [r3, #0]	@ zero_extendqisi2
 3910 13b4 000053E3 		cmp	r3, #0
 3911 13b8 0600000A 		beq	.L79
 454:../proyecto.c ****     {
 455:../proyecto.c ****         init  = FALSE;
 3912              		.loc 1 455 0
 3913 13bc E4309FE5 		ldr	r3, .L89
 3914 13c0 0020A0E3 		mov	r2, #0
 3915 13c4 0020C3E5 		strb	r2, [r3, #0]
 456:../proyecto.c ****         state = wait_keydown;
 3916              		.loc 1 456 0
 3917 13c8 DC309FE5 		ldr	r3, .L89+4
 3918 13cc 0020A0E3 		mov	r2, #0
 3919 13d0 0020C3E5 		strb	r2, [r3, #0]
 3920 13d4 300000EA 		b	.L78
 3921              	.L79:
 457:../proyecto.c ****     }
 458:../proyecto.c ****     else switch( state )
 3922              		.loc 1 458 0
 3923 13d8 CC309FE5 		ldr	r3, .L89+4
 3924 13dc 0030D3E5 		ldrb	r3, [r3, #0]	@ zero_extendqisi2
 3925 13e0 010053E3 		cmp	r3, #1
 3926 13e4 0B00000A 		beq	.L82
 3927 13e8 020053E3 		cmp	r3, #2
 3928 13ec 1F00000A 		beq	.L83
 3929 13f0 000053E3 		cmp	r3, #0
 3930 13f4 2800001A 		bne	.L78
 3931              	.L81:
 459:../proyecto.c ****     {
 460:../proyecto.c ****         case wait_keydown:                        /* Estado esperando la presion de la pantalla */
 461:../proyecto.c ****             if( ts_pressed() )                        /* Chequea la pantalla esta presionada */
 3932              		.loc 1 461 0
 3933 13f8 FEFFFFEB 		bl	ts_pressed
 3934 13fc 0030A0E1 		mov	r3, r0
 3935 1400 000053E3 		cmp	r3, #0
 3936 1404 2100000A 		beq	.L87
 462:../proyecto.c ****                 state = scan;                         /* Salta al estado scan */
 3937              		.loc 1 462 0
 3938 1408 9C309FE5 		ldr	r3, .L89+4
 3939 140c 0120A0E3 		mov	r2, #1
 3940 1410 0020C3E5 		strb	r2, [r3, #0]
 463:../proyecto.c ****             break;
 3941              		.loc 1 463 0
 3942 1414 200000EA 		b	.L78
 3943              	.L82:
 464:../proyecto.c ****         case scan:                                /* Estado en que escanea la pantalla */
 465:../proyecto.c ****             ts_getpos( &tsPressedMsg.x, &tsPressedMsg.y );    /* Lee la pantalla */
 3944              		.loc 1 465 0
 3945 1418 90009FE5 		ldr	r0, .L89+8
 3946 141c 90109FE5 		ldr	r1, .L89+12
 3947 1420 FEFFFFEB 		bl	ts_getpos
 466:../proyecto.c ****             tsPressedMsg.flag = TRUE;                 /* Envia un mensaje con el valor de la posici
 3948              		.loc 1 466 0
 3949 1424 8C309FE5 		ldr	r3, .L89+16
 3950 1428 0120A0E3 		mov	r2, #1
 3951 142c 0020C3E5 		strb	r2, [r3, #0]
 467:../proyecto.c ****             if(tsPressedMsg.x > LCD_WIDTH-50 && tsPressedMsg.y < 50)
 3952              		.loc 1 467 0
 3953 1430 80309FE5 		ldr	r3, .L89+16
 3954 1434 B220D3E1 		ldrh	r2, [r3, #2]
 3955 1438 7C309FE5 		ldr	r3, .L89+20
 3956 143c 030052E1 		cmp	r2, r3
 3957 1440 0600009A 		bls	.L85
 3958              		.loc 1 467 0 is_stmt 0 discriminator 1
 3959 1444 6C309FE5 		ldr	r3, .L89+16
 3960 1448 B430D3E1 		ldrh	r3, [r3, #4]
 3961 144c 310053E3 		cmp	r3, #49
 3962 1450 0200008A 		bhi	.L85
 468:../proyecto.c ****             	tsPressedMsg.langFlag = TRUE;
 3963              		.loc 1 468 0 is_stmt 1
 3964 1454 5C309FE5 		ldr	r3, .L89+16
 3965 1458 0120A0E3 		mov	r2, #1
 3966 145c 0120C3E5 		strb	r2, [r3, #1]
 3967              	.L85:
 469:../proyecto.c ****             state = wait_keyup;                       /* Salta al estado wait_keyup */
 3968              		.loc 1 469 0
 3969 1460 44309FE5 		ldr	r3, .L89+4
 3970 1464 0220A0E3 		mov	r2, #2
 3971 1468 0020C3E5 		strb	r2, [r3, #0]
 470:../proyecto.c ****             break;
 3972              		.loc 1 470 0
 3973 146c 0A0000EA 		b	.L78
 3974              	.L83:
 471:../proyecto.c ****         case wait_keyup:                          /* Estado esperando la depresion de la pantalla  
 472:../proyecto.c ****             if( !ts_pressed() )                       /* Chequea si la pantalla ya no esta presiona
 3975              		.loc 1 472 0
 3976 1470 FEFFFFEB 		bl	ts_pressed
 3977 1474 0030A0E1 		mov	r3, r0
 3978 1478 000053E3 		cmp	r3, #0
 3979 147c 0500001A 		bne	.L88
 473:../proyecto.c ****                 state = wait_keydown;                 /* Salta al estado wait_keydown */
 3980              		.loc 1 473 0
 3981 1480 24309FE5 		ldr	r3, .L89+4
 3982 1484 0020A0E3 		mov	r2, #0
 3983 1488 0020C3E5 		strb	r2, [r3, #0]
 474:../proyecto.c ****             break;
 3984              		.loc 1 474 0
 3985 148c 020000EA 		b	.L78
 3986              	.L87:
 463:../proyecto.c ****             break;
 3987              		.loc 1 463 0
 3988 1490 0000A0E1 		mov	r0, r0	@ nop
 3989 1494 000000EA 		b	.L78
 3990              	.L88:
 3991              		.loc 1 474 0
 3992 1498 0000A0E1 		mov	r0, r0	@ nop
 3993              	.L78:
 475:../proyecto.c ****     }
 476:../proyecto.c **** }
 3994              		.loc 1 476 0
 3995 149c 0CD04BE2 		sub	sp, fp, #12
 3996 14a0 00689DE8 		ldmfd	sp, {fp, sp, lr}
 3997 14a4 1EFF2FE1 		bx	lr
 3998              	.L90:
 3999              		.align	2
 4000              	.L89:
 4001 14a8 02000000 		.word	init.4391
 4002 14ac 09000000 		.word	state.4396
 4003 14b0 02000000 		.word	tsPressedMsg+2
 4004 14b4 04000000 		.word	tsPressedMsg+4
 4005 14b8 00000000 		.word	tsPressedMsg
 4006 14bc 0E010000 		.word	270
 4007              		.cfi_endproc
 4008              	.LFE4:
 4010              		.align	2
 4011              		.global	kpScanTask
 4013              	kpScanTask:
 4014              	.LFB5:
 477:../proyecto.c **** 
 478:../proyecto.c **** /* 
 479:../proyecto.c **** ** Emula el comportamiento de un reconocedor de monedas:
 480:../proyecto.c **** **   Cada 50 ms muestrea el keypad y envia un mensaje a la tarea principal con el valor de la moned
 481:../proyecto.c **** */
 482:../proyecto.c **** void kpScanTask( void )
 483:../proyecto.c **** {
 4015              		.loc 1 483 0
 4016              		.cfi_startproc
 4017              		@ Function supports interworking.
 4018              		@ args = 0, pretend = 0, frame = 0
 4019              		@ frame_needed = 1, uses_anonymous_args = 0
 4020 14c0 0DC0A0E1 		mov	ip, sp
 4021              	.LCFI10:
 4022              		.cfi_def_cfa_register 12
 4023 14c4 00D82DE9 		stmfd	sp!, {fp, ip, lr, pc}
 4024 14c8 04B04CE2 		sub	fp, ip, #4
 4025              		.cfi_offset 14, -8
 4026              		.cfi_offset 13, -12
 4027              		.cfi_offset 11, -16
 4028              	.LCFI11:
 4029              		.cfi_def_cfa 11, 4
 484:../proyecto.c ****     static boolean init = TRUE;
 485:../proyecto.c ****     static enum { wait_keydown, coinInput, licenseInput, wait_keyup } state;
 486:../proyecto.c **** 
 487:../proyecto.c **** 
 488:../proyecto.c ****     
 489:../proyecto.c ****     if( init )
 4030              		.loc 1 489 0
 4031 14cc A4319FE5 		ldr	r3, .L110
 4032 14d0 0030D3E5 		ldrb	r3, [r3, #0]	@ zero_extendqisi2
 4033 14d4 000053E3 		cmp	r3, #0
 4034 14d8 0600000A 		beq	.L92
 490:../proyecto.c ****     {
 491:../proyecto.c ****         init  = FALSE;
 4035              		.loc 1 491 0
 4036 14dc 94319FE5 		ldr	r3, .L110
 4037 14e0 0020A0E3 		mov	r2, #0
 4038 14e4 0020C3E5 		strb	r2, [r3, #0]
 492:../proyecto.c ****         state = wait_keydown;
 4039              		.loc 1 492 0
 4040 14e8 8C319FE5 		ldr	r3, .L110+4
 4041 14ec 0020A0E3 		mov	r2, #0
 4042 14f0 0020C3E5 		strb	r2, [r3, #0]
 4043 14f4 5C0000EA 		b	.L91
 4044              	.L92:
 493:../proyecto.c ****     }
 494:../proyecto.c ****     else switch( state )
 4045              		.loc 1 494 0
 4046 14f8 7C319FE5 		ldr	r3, .L110+4
 4047 14fc 0030D3E5 		ldrb	r3, [r3, #0]	@ zero_extendqisi2
 4048 1500 030053E3 		cmp	r3, #3
 4049 1504 03F19F97 		ldrls	pc, [pc, r3, asl #2]
 4050 1508 570000EA 		b	.L91
 4051              	.L98:
 4052 150c 1C150000 		.word	.L94
 4053 1510 6C150000 		.word	.L95
 4054 1514 10160000 		.word	.L96
 4055 1518 40160000 		.word	.L97
 4056              	.L94:
 495:../proyecto.c ****     {
 496:../proyecto.c ****         case wait_keydown:                        /* Estado esperando la presion teclas */
 497:../proyecto.c ****             if( keypad_pressed() && !kpPressedMsg.licPlateInput)                    /* Chequea si h
 4057              		.loc 1 497 0
 4058 151c FEFFFFEB 		bl	keypad_pressed
 4059 1520 0030A0E1 		mov	r3, r0
 4060 1524 000053E3 		cmp	r3, #0
 4061 1528 0700000A 		beq	.L99
 4062              		.loc 1 497 0 is_stmt 0 discriminator 1
 4063 152c 4C319FE5 		ldr	r3, .L110+8
 4064 1530 0130D3E5 		ldrb	r3, [r3, #1]	@ zero_extendqisi2
 4065 1534 000053E3 		cmp	r3, #0
 4066 1538 0300001A 		bne	.L99
 498:../proyecto.c ****                 state = coinInput;                         /* Salta al estado scan */
 4067              		.loc 1 498 0 is_stmt 1
 4068 153c 38319FE5 		ldr	r3, .L110+4
 4069 1540 0120A0E3 		mov	r2, #1
 4070 1544 0020C3E5 		strb	r2, [r3, #0]
 499:../proyecto.c ****             else if(keypad_pressed())
 500:../proyecto.c ****             	state = licenseInput;
 501:../proyecto.c ****             break;
 4071              		.loc 1 501 0
 4072 1548 470000EA 		b	.L91
 4073              	.L99:
 499:../proyecto.c ****             else if(keypad_pressed())
 4074              		.loc 1 499 0
 4075 154c FEFFFFEB 		bl	keypad_pressed
 4076 1550 0030A0E1 		mov	r3, r0
 4077 1554 000053E3 		cmp	r3, #0
 4078 1558 4000000A 		beq	.L108
 500:../proyecto.c ****             	state = licenseInput;
 4079              		.loc 1 500 0
 4080 155c 18319FE5 		ldr	r3, .L110+4
 4081 1560 0220A0E3 		mov	r2, #2
 4082 1564 0020C3E5 		strb	r2, [r3, #0]
 4083              		.loc 1 501 0
 4084 1568 3F0000EA 		b	.L91
 4085              	.L95:
 502:../proyecto.c ****         case coinInput:                                /* Estado en que escanea el teclado */
 503:../proyecto.c ****             switch( keypad_scan() )                   /* Lee el teclado */
 4086              		.loc 1 503 0
 4087 156c FEFFFFEB 		bl	keypad_scan
 4088 1570 0030A0E1 		mov	r3, r0
 4089 1574 030053E3 		cmp	r3, #3
 4090 1578 03F19F97 		ldrls	pc, [pc, r3, asl #2]
 4091 157c 1F0000EA 		b	.L101
 4092              	.L106:
 4093 1580 90150000 		.word	.L102
 4094 1584 AC150000 		.word	.L103
 4095 1588 C8150000 		.word	.L104
 4096 158c E4150000 		.word	.L105
 4097              	.L102:
 504:../proyecto.c ****             {
 505:../proyecto.c ****                 case KEYPAD_KEY0:                         /* La tecla 0 esta asociada a la moneda d
 506:../proyecto.c ****                     kpPressedMsg.cents = 10;           /* Envia un mensaje con el valor de la moned
 4098              		.loc 1 506 0
 4099 1590 E8309FE5 		ldr	r3, .L110+8
 4100 1594 0A20A0E3 		mov	r2, #10
 4101 1598 0220C3E5 		strb	r2, [r3, #2]
 507:../proyecto.c ****                     kpPressedMsg.flag  = TRUE;
 4102              		.loc 1 507 0
 4103 159c DC309FE5 		ldr	r3, .L110+8
 4104 15a0 0120A0E3 		mov	r2, #1
 4105 15a4 0020C3E5 		strb	r2, [r3, #0]
 508:../proyecto.c ****                     break;
 4106              		.loc 1 508 0
 4107 15a8 140000EA 		b	.L101
 4108              	.L103:
 509:../proyecto.c ****                 case KEYPAD_KEY1:                         /* La tecla 1 esta asociada a la moneda d
 510:../proyecto.c **** 				    kpPressedMsg.cents = 20;           /* Envia un mensaje con el valor de la moneda */
 4109              		.loc 1 510 0
 4110 15ac CC309FE5 		ldr	r3, .L110+8
 4111 15b0 1420A0E3 		mov	r2, #20
 4112 15b4 0220C3E5 		strb	r2, [r3, #2]
 511:../proyecto.c **** 				    kpPressedMsg.flag  = TRUE;
 4113              		.loc 1 511 0
 4114 15b8 C0309FE5 		ldr	r3, .L110+8
 4115 15bc 0120A0E3 		mov	r2, #1
 4116 15c0 0020C3E5 		strb	r2, [r3, #0]
 512:../proyecto.c **** 				    break;
 4117              		.loc 1 512 0
 4118 15c4 0D0000EA 		b	.L101
 4119              	.L104:
 513:../proyecto.c ****                 case KEYPAD_KEY2:                         /* La tecla 2 esta asociada a la moneda d
 514:../proyecto.c **** 					kpPressedMsg.cents = 50;           /* Envia un mensaje con el valor de la moneda */
 4120              		.loc 1 514 0
 4121 15c8 B0309FE5 		ldr	r3, .L110+8
 4122 15cc 3220A0E3 		mov	r2, #50
 4123 15d0 0220C3E5 		strb	r2, [r3, #2]
 515:../proyecto.c **** 					kpPressedMsg.flag  = TRUE;
 4124              		.loc 1 515 0
 4125 15d4 A4309FE5 		ldr	r3, .L110+8
 4126 15d8 0120A0E3 		mov	r2, #1
 4127 15dc 0020C3E5 		strb	r2, [r3, #0]
 516:../proyecto.c **** 					break;
 4128              		.loc 1 516 0
 4129 15e0 060000EA 		b	.L101
 4130              	.L105:
 517:../proyecto.c ****                 case KEYPAD_KEY3:                         /* La tecla 3 esta asociada a la moneda d
 518:../proyecto.c **** 					kpPressedMsg.cents = 100;           /* Envia un mensaje con el valor de la moneda */
 4131              		.loc 1 518 0
 4132 15e4 94309FE5 		ldr	r3, .L110+8
 4133 15e8 6420A0E3 		mov	r2, #100
 4134 15ec 0220C3E5 		strb	r2, [r3, #2]
 519:../proyecto.c **** 					kpPressedMsg.flag  = TRUE;
 4135              		.loc 1 519 0
 4136 15f0 88309FE5 		ldr	r3, .L110+8
 4137 15f4 0120A0E3 		mov	r2, #1
 4138 15f8 0020C3E5 		strb	r2, [r3, #0]
 520:../proyecto.c **** 					break;
 4139              		.loc 1 520 0
 4140 15fc 0000A0E1 		mov	r0, r0	@ nop
 4141              	.L101:
 521:../proyecto.c ****             }
 522:../proyecto.c ****             state = wait_keyup;                       /* Salta al estado wait_keyup */
 4142              		.loc 1 522 0
 4143 1600 74309FE5 		ldr	r3, .L110+4
 4144 1604 0320A0E3 		mov	r2, #3
 4145 1608 0020C3E5 		strb	r2, [r3, #0]
 523:../proyecto.c ****             break;
 4146              		.loc 1 523 0
 4147 160c 160000EA 		b	.L91
 4148              	.L96:
 524:../proyecto.c **** 		case licenseInput:
 525:../proyecto.c **** 			kpPressedMsg.keyPress = keypad_scan();
 4149              		.loc 1 525 0
 4150 1610 FEFFFFEB 		bl	keypad_scan
 4151 1614 0030A0E1 		mov	r3, r0
 4152 1618 0320A0E1 		mov	r2, r3
 4153 161c 5C309FE5 		ldr	r3, .L110+8
 4154 1620 0320C3E5 		strb	r2, [r3, #3]
 526:../proyecto.c **** 		    state = wait_keyup;
 4155              		.loc 1 526 0
 4156 1624 50309FE5 		ldr	r3, .L110+4
 4157 1628 0320A0E3 		mov	r2, #3
 4158 162c 0020C3E5 		strb	r2, [r3, #0]
 527:../proyecto.c **** 		    kpPressedMsg.flag  = TRUE;
 4159              		.loc 1 527 0
 4160 1630 48309FE5 		ldr	r3, .L110+8
 4161 1634 0120A0E3 		mov	r2, #1
 4162 1638 0020C3E5 		strb	r2, [r3, #0]
 528:../proyecto.c **** 			break;
 4163              		.loc 1 528 0
 4164 163c 0A0000EA 		b	.L91
 4165              	.L97:
 529:../proyecto.c ****         case wait_keyup:                          /* Estado esperando la depresion de teclas  */
 530:../proyecto.c ****             if( !keypad_pressed() )                   /* Chequea si la tecla ya no esta presionada 
 4166              		.loc 1 530 0
 4167 1640 FEFFFFEB 		bl	keypad_pressed
 4168 1644 0030A0E1 		mov	r3, r0
 4169 1648 000053E3 		cmp	r3, #0
 4170 164c 0500001A 		bne	.L109
 531:../proyecto.c ****                 state = wait_keydown;                     /* Salta al estado wait_keydown */
 4171              		.loc 1 531 0
 4172 1650 24309FE5 		ldr	r3, .L110+4
 4173 1654 0020A0E3 		mov	r2, #0
 4174 1658 0020C3E5 		strb	r2, [r3, #0]
 532:../proyecto.c ****             break;
 4175              		.loc 1 532 0
 4176 165c 020000EA 		b	.L91
 4177              	.L108:
 501:../proyecto.c ****             break;
 4178              		.loc 1 501 0
 4179 1660 0000A0E1 		mov	r0, r0	@ nop
 4180 1664 000000EA 		b	.L91
 4181              	.L109:
 4182              		.loc 1 532 0
 4183 1668 0000A0E1 		mov	r0, r0	@ nop
 4184              	.L91:
 533:../proyecto.c ****     }    
 534:../proyecto.c **** }
 4185              		.loc 1 534 0
 4186 166c 0CD04BE2 		sub	sp, fp, #12
 4187 1670 00689DE8 		ldmfd	sp, {fp, sp, lr}
 4188 1674 1EFF2FE1 		bx	lr
 4189              	.L111:
 4190              		.align	2
 4191              	.L110:
 4192 1678 01000000 		.word	init.4404
 4193 167c 08000000 		.word	state.4410
 4194 1680 00000000 		.word	kpPressedMsg
 4195              		.cfi_endproc
 4196              	.LFE5:
 4198              		.align	2
 4199              		.global	coinsMoverTask
 4201              	coinsMoverTask:
 4202              	.LFB6:
 535:../proyecto.c **** 
 536:../proyecto.c **** 
 537:../proyecto.c **** 
 538:../proyecto.c **** /* 
 539:../proyecto.c **** ** Emula el comportamiento del dispositivo que envia las monedas a la alcancia o al cajetin de devo
 540:../proyecto.c **** **   Cada 100 ms muestrea si ha recibido un mensaje de la tarea principal para mover monedas
 541:../proyecto.c **** **   Si van a la alcancia activa durante 1 s los leds y muestra una A en los segs
 542:../proyecto.c **** **   Si van al cajetin de devolucion activa durante 1 segundo los leds y muestra una D en los segs
 543:../proyecto.c **** */
 544:../proyecto.c **** void coinsMoverTask( void )
 545:../proyecto.c **** {
 4203              		.loc 1 545 0
 4204              		.cfi_startproc
 4205              		@ Function supports interworking.
 4206              		@ args = 0, pretend = 0, frame = 0
 4207              		@ frame_needed = 1, uses_anonymous_args = 0
 4208 1684 0DC0A0E1 		mov	ip, sp
 4209              	.LCFI12:
 4210              		.cfi_def_cfa_register 12
 4211 1688 00D82DE9 		stmfd	sp!, {fp, ip, lr, pc}
 4212 168c 04B04CE2 		sub	fp, ip, #4
 4213              		.cfi_offset 14, -8
 4214              		.cfi_offset 13, -12
 4215              		.cfi_offset 11, -16
 4216              	.LCFI13:
 4217              		.cfi_def_cfa 11, 4
 546:../proyecto.c ****     static boolean init = TRUE;
 547:../proyecto.c ****     static enum { off, on } state;    
 548:../proyecto.c ****     static uint32 ticks;
 549:../proyecto.c ****     
 550:../proyecto.c ****     if( init )
 4218              		.loc 1 550 0
 4219 1690 0C319FE5 		ldr	r3, .L123
 4220 1694 0030D3E5 		ldrb	r3, [r3, #0]	@ zero_extendqisi2
 4221 1698 000053E3 		cmp	r3, #0
 4222 169c 0600000A 		beq	.L113
 551:../proyecto.c ****     {
 552:../proyecto.c ****         init  = FALSE;
 4223              		.loc 1 552 0
 4224 16a0 FC309FE5 		ldr	r3, .L123
 4225 16a4 0020A0E3 		mov	r2, #0
 4226 16a8 0020C3E5 		strb	r2, [r3, #0]
 553:../proyecto.c ****         state = off;
 4227              		.loc 1 553 0
 4228 16ac F4309FE5 		ldr	r3, .L123+4
 4229 16b0 0020A0E3 		mov	r2, #0
 4230 16b4 0020C3E5 		strb	r2, [r3, #0]
 4231 16b8 360000EA 		b	.L112
 4232              	.L113:
 554:../proyecto.c ****     }
 555:../proyecto.c ****     else switch( state )
 4233              		.loc 1 555 0
 4234 16bc E4309FE5 		ldr	r3, .L123+4
 4235 16c0 0030D3E5 		ldrb	r3, [r3, #0]	@ zero_extendqisi2
 4236 16c4 000053E3 		cmp	r3, #0
 4237 16c8 0200000A 		beq	.L115
 4238 16cc 010053E3 		cmp	r3, #1
 4239 16d0 1B00000A 		beq	.L116
 4240 16d4 2F0000EA 		b	.L112
 4241              	.L115:
 556:../proyecto.c ****     {
 557:../proyecto.c ****         case off:                                /* Estado con leds y 7-segs apagados */
 558:../proyecto.c ****             if( coinsMoverMsg.flag )                /* Chequea si ha recibido mensaje */
 4242              		.loc 1 558 0
 4243 16d8 CC309FE5 		ldr	r3, .L123+8
 4244 16dc 0030D3E5 		ldrb	r3, [r3, #0]	@ zero_extendqisi2
 4245 16e0 000053E3 		cmp	r3, #0
 4246 16e4 2800000A 		beq	.L121
 559:../proyecto.c ****             {
 560:../proyecto.c ****                 coinsMoverMsg.flag = FALSE;            /* Marca el mensaje como leido */
 4247              		.loc 1 560 0
 4248 16e8 BC309FE5 		ldr	r3, .L123+8
 4249 16ec 0020A0E3 		mov	r2, #0
 4250 16f0 0020C3E5 		strb	r2, [r3, #0]
 561:../proyecto.c ****                 if( coinsMoverMsg.accept )             /* Muestra el mensaje que corresponda en seg
 4251              		.loc 1 561 0
 4252 16f4 B0309FE5 		ldr	r3, .L123+8
 4253 16f8 0130D3E5 		ldrb	r3, [r3, #1]	@ zero_extendqisi2
 4254 16fc 000053E3 		cmp	r3, #0
 4255 1700 0200000A 		beq	.L118
 562:../proyecto.c ****                     segs_putchar( 10 );
 4256              		.loc 1 562 0
 4257 1704 0A00A0E3 		mov	r0, #10
 4258 1708 FEFFFFEB 		bl	segs_putchar
 4259 170c 010000EA 		b	.L119
 4260              	.L118:
 563:../proyecto.c ****                 else
 564:../proyecto.c ****                     segs_putchar( 13 );
 4261              		.loc 1 564 0
 4262 1710 0D00A0E3 		mov	r0, #13
 4263 1714 FEFFFFEB 		bl	segs_putchar
 4264              	.L119:
 565:../proyecto.c ****                 led_on( LEFT_LED );                    /* Enciende leds */
 4265              		.loc 1 565 0
 4266 1718 0100A0E3 		mov	r0, #1
 4267 171c FEFFFFEB 		bl	led_on
 566:../proyecto.c ****                 led_on( RIGHT_LED );
 4268              		.loc 1 566 0
 4269 1720 0200A0E3 		mov	r0, #2
 4270 1724 FEFFFFEB 		bl	led_on
 567:../proyecto.c ****                 state = on;                            /* Salta al estado on ... */
 4271              		.loc 1 567 0
 4272 1728 78309FE5 		ldr	r3, .L123+4
 4273 172c 0120A0E3 		mov	r2, #1
 4274 1730 0020C3E5 		strb	r2, [r3, #0]
 568:../proyecto.c ****                 ticks = 10;                            /* ... en el que debera permanecer 10 ticks 
 4275              		.loc 1 568 0
 4276 1734 74309FE5 		ldr	r3, .L123+12
 4277 1738 0A20A0E3 		mov	r2, #10
 4278 173c 002083E5 		str	r2, [r3, #0]
 569:../proyecto.c ****             }
 570:../proyecto.c ****             break;
 4279              		.loc 1 570 0
 4280 1740 140000EA 		b	.L112
 4281              	.L116:
 571:../proyecto.c ****         case on:                                /* Estado con leds y 7-segs encendidos */
 572:../proyecto.c ****             if( !(--ticks) )                        /* Decrementa ticks y chequea si ha permanecido
 4282              		.loc 1 572 0
 4283 1744 64309FE5 		ldr	r3, .L123+12
 4284 1748 003093E5 		ldr	r3, [r3, #0]
 4285 174c 012043E2 		sub	r2, r3, #1
 4286 1750 58309FE5 		ldr	r3, .L123+12
 4287 1754 002083E5 		str	r2, [r3, #0]
 4288 1758 50309FE5 		ldr	r3, .L123+12
 4289 175c 003093E5 		ldr	r3, [r3, #0]
 4290 1760 000053E3 		cmp	r3, #0
 4291 1764 0A00001A 		bne	.L122
 573:../proyecto.c ****             {  
 574:../proyecto.c ****                 segs_off();                            /* Apaga segs */
 4292              		.loc 1 574 0
 4293 1768 FEFFFFEB 		bl	segs_off
 575:../proyecto.c ****                 led_off( LEFT_LED );                   /* Apaga leds */
 4294              		.loc 1 575 0
 4295 176c 0100A0E3 		mov	r0, #1
 4296 1770 FEFFFFEB 		bl	led_off
 576:../proyecto.c ****                 led_off( RIGHT_LED );                                
 4297              		.loc 1 576 0
 4298 1774 0200A0E3 		mov	r0, #2
 4299 1778 FEFFFFEB 		bl	led_off
 577:../proyecto.c ****                 state = off;                           /* Salta al estado off */
 4300              		.loc 1 577 0
 4301 177c 24309FE5 		ldr	r3, .L123+4
 4302 1780 0020A0E3 		mov	r2, #0
 4303 1784 0020C3E5 		strb	r2, [r3, #0]
 578:../proyecto.c ****             }
 579:../proyecto.c ****             break;
 4304              		.loc 1 579 0
 4305 1788 020000EA 		b	.L112
 4306              	.L121:
 570:../proyecto.c ****             break;
 4307              		.loc 1 570 0
 4308 178c 0000A0E1 		mov	r0, r0	@ nop
 4309 1790 000000EA 		b	.L112
 4310              	.L122:
 4311              		.loc 1 579 0
 4312 1794 0000A0E1 		mov	r0, r0	@ nop
 4313              	.L112:
 580:../proyecto.c ****     }
 581:../proyecto.c **** }    
 4314              		.loc 1 581 0
 4315 1798 0CD04BE2 		sub	sp, fp, #12
 4316 179c 00689DE8 		ldmfd	sp, {fp, sp, lr}
 4317 17a0 1EFF2FE1 		bx	lr
 4318              	.L124:
 4319              		.align	2
 4320              	.L123:
 4321 17a4 00000000 		.word	init.4424
 4322 17a8 01000000 		.word	state.4428
 4323 17ac 00000000 		.word	coinsMoverMsg
 4324 17b0 04000000 		.word	ticks.4429
 4325              		.cfi_endproc
 4326              	.LFE6:
 4328              		.align	2
 4329              		.global	selectorTask
 4331              	selectorTask:
 4332              	.LFB7:
 582:../proyecto.c **** 
 583:../proyecto.c **** 
 584:../proyecto.c **** int8 selectorTask(void)
 585:../proyecto.c **** {
 4333              		.loc 1 585 0
 4334              		.cfi_startproc
 4335              		@ Function supports interworking.
 4336              		@ args = 0, pretend = 0, frame = 0
 4337              		@ frame_needed = 1, uses_anonymous_args = 0
 4338 17b4 0DC0A0E1 		mov	ip, sp
 4339              	.LCFI14:
 4340              		.cfi_def_cfa_register 12
 4341 17b8 00D82DE9 		stmfd	sp!, {fp, ip, lr, pc}
 4342 17bc 04B04CE2 		sub	fp, ip, #4
 4343              		.cfi_offset 14, -8
 4344              		.cfi_offset 13, -12
 4345              		.cfi_offset 11, -16
 4346              	.LCFI15:
 4347              		.cfi_def_cfa 11, 4
 586:../proyecto.c **** 
 587:../proyecto.c **** 	//PUESTO 1
 588:../proyecto.c **** 	if(tsPressedMsg.x < LCD_WIDTH/4 && 64 < tsPressedMsg.y && tsPressedMsg.y < 128)
 4348              		.loc 1 588 0
 4349 17c0 14329FE5 		ldr	r3, .L135
 4350 17c4 B230D3E1 		ldrh	r3, [r3, #2]
 4351 17c8 4F0053E3 		cmp	r3, #79
 4352 17cc 0900008A 		bhi	.L126
 4353              		.loc 1 588 0 is_stmt 0 discriminator 1
 4354 17d0 04329FE5 		ldr	r3, .L135
 4355 17d4 B430D3E1 		ldrh	r3, [r3, #4]
 4356 17d8 400053E3 		cmp	r3, #64
 4357 17dc 0500009A 		bls	.L126
 4358 17e0 F4319FE5 		ldr	r3, .L135
 4359 17e4 B430D3E1 		ldrh	r3, [r3, #4]
 4360 17e8 7F0053E3 		cmp	r3, #127
 4361 17ec 0100008A 		bhi	.L126
 589:../proyecto.c **** 	{
 590:../proyecto.c **** 		return 0;
 4362              		.loc 1 590 0 is_stmt 1
 4363 17f0 0030A0E3 		mov	r3, #0
 4364 17f4 720000EA 		b	.L127
 4365              	.L126:
 591:../proyecto.c **** 	}
 592:../proyecto.c **** 	//PUESTO 2
 593:../proyecto.c **** 	else if(tsPressedMsg.x > LCD_WIDTH/4 && tsPressedMsg.x < LCD_WIDTH*2/4 &&  64 < tsPressedMsg.y && 
 4366              		.loc 1 593 0
 4367 17f8 DC319FE5 		ldr	r3, .L135
 4368 17fc B230D3E1 		ldrh	r3, [r3, #2]
 4369 1800 500053E3 		cmp	r3, #80
 4370 1804 0D00009A 		bls	.L128
 4371              		.loc 1 593 0 is_stmt 0 discriminator 1
 4372 1808 CC319FE5 		ldr	r3, .L135
 4373 180c B230D3E1 		ldrh	r3, [r3, #2]
 4374 1810 9F0053E3 		cmp	r3, #159
 4375 1814 0900008A 		bhi	.L128
 4376 1818 BC319FE5 		ldr	r3, .L135
 4377 181c B430D3E1 		ldrh	r3, [r3, #4]
 4378 1820 400053E3 		cmp	r3, #64
 4379 1824 0500009A 		bls	.L128
 4380 1828 AC319FE5 		ldr	r3, .L135
 4381 182c B430D3E1 		ldrh	r3, [r3, #4]
 4382 1830 7F0053E3 		cmp	r3, #127
 4383 1834 0100008A 		bhi	.L128
 594:../proyecto.c **** 	{
 595:../proyecto.c **** 		return 1;
 4384              		.loc 1 595 0 is_stmt 1
 4385 1838 0130A0E3 		mov	r3, #1
 4386 183c 600000EA 		b	.L127
 4387              	.L128:
 596:../proyecto.c **** 
 597:../proyecto.c **** 	}
 598:../proyecto.c **** 	//PUESTO 3
 599:../proyecto.c **** 	else if(tsPressedMsg.x > LCD_WIDTH*2/4 && tsPressedMsg.x < LCD_WIDTH*3/4 && 64 < tsPressedMsg.y &&
 4388              		.loc 1 599 0
 4389 1840 94319FE5 		ldr	r3, .L135
 4390 1844 B230D3E1 		ldrh	r3, [r3, #2]
 4391 1848 A00053E3 		cmp	r3, #160
 4392 184c 0D00009A 		bls	.L129
 4393              		.loc 1 599 0 is_stmt 0 discriminator 1
 4394 1850 84319FE5 		ldr	r3, .L135
 4395 1854 B230D3E1 		ldrh	r3, [r3, #2]
 4396 1858 EF0053E3 		cmp	r3, #239
 4397 185c 0900008A 		bhi	.L129
 4398 1860 74319FE5 		ldr	r3, .L135
 4399 1864 B430D3E1 		ldrh	r3, [r3, #4]
 4400 1868 400053E3 		cmp	r3, #64
 4401 186c 0500009A 		bls	.L129
 4402 1870 64319FE5 		ldr	r3, .L135
 4403 1874 B430D3E1 		ldrh	r3, [r3, #4]
 4404 1878 7F0053E3 		cmp	r3, #127
 4405 187c 0100008A 		bhi	.L129
 600:../proyecto.c **** 	{
 601:../proyecto.c **** 		return 2;
 4406              		.loc 1 601 0 is_stmt 1
 4407 1880 0230A0E3 		mov	r3, #2
 4408 1884 4E0000EA 		b	.L127
 4409              	.L129:
 602:../proyecto.c **** 
 603:../proyecto.c **** 	}
 604:../proyecto.c **** 	//PUESTO 4
 605:../proyecto.c **** 	else if(tsPressedMsg.x > LCD_WIDTH*3/4 && 64 < tsPressedMsg.y && tsPressedMsg.y < 128)
 4410              		.loc 1 605 0
 4411 1888 4C319FE5 		ldr	r3, .L135
 4412 188c B230D3E1 		ldrh	r3, [r3, #2]
 4413 1890 F00053E3 		cmp	r3, #240
 4414 1894 0900009A 		bls	.L130
 4415              		.loc 1 605 0 is_stmt 0 discriminator 1
 4416 1898 3C319FE5 		ldr	r3, .L135
 4417 189c B430D3E1 		ldrh	r3, [r3, #4]
 4418 18a0 400053E3 		cmp	r3, #64
 4419 18a4 0500009A 		bls	.L130
 4420 18a8 2C319FE5 		ldr	r3, .L135
 4421 18ac B430D3E1 		ldrh	r3, [r3, #4]
 4422 18b0 7F0053E3 		cmp	r3, #127
 4423 18b4 0100008A 		bhi	.L130
 606:../proyecto.c **** 	{
 607:../proyecto.c **** 		return 3;
 4424              		.loc 1 607 0 is_stmt 1
 4425 18b8 0330A0E3 		mov	r3, #3
 4426 18bc 400000EA 		b	.L127
 4427              	.L130:
 608:../proyecto.c **** 
 609:../proyecto.c **** 	}
 610:../proyecto.c **** 	//PUESTO 5
 611:../proyecto.c **** 	else if(tsPressedMsg.x > LCD_WIDTH/4 && tsPressedMsg.x < LCD_WIDTH*2/4 && 128 < tsPressedMsg.y && 
 4428              		.loc 1 611 0
 4429 18c0 14319FE5 		ldr	r3, .L135
 4430 18c4 B230D3E1 		ldrh	r3, [r3, #2]
 4431 18c8 500053E3 		cmp	r3, #80
 4432 18cc 0D00009A 		bls	.L131
 4433              		.loc 1 611 0 is_stmt 0 discriminator 1
 4434 18d0 04319FE5 		ldr	r3, .L135
 4435 18d4 B230D3E1 		ldrh	r3, [r3, #2]
 4436 18d8 9F0053E3 		cmp	r3, #159
 4437 18dc 0900008A 		bhi	.L131
 4438 18e0 F4309FE5 		ldr	r3, .L135
 4439 18e4 B430D3E1 		ldrh	r3, [r3, #4]
 4440 18e8 800053E3 		cmp	r3, #128
 4441 18ec 0500009A 		bls	.L131
 4442 18f0 E4309FE5 		ldr	r3, .L135
 4443 18f4 B430D3E1 		ldrh	r3, [r3, #4]
 4444 18f8 BF0053E3 		cmp	r3, #191
 4445 18fc 0100008A 		bhi	.L131
 612:../proyecto.c **** 	{
 613:../proyecto.c **** 		return 4;
 4446              		.loc 1 613 0 is_stmt 1
 4447 1900 0430A0E3 		mov	r3, #4
 4448 1904 2E0000EA 		b	.L127
 4449              	.L131:
 614:../proyecto.c **** 
 615:../proyecto.c **** 	}
 616:../proyecto.c **** 	//PUESTO 6
 617:../proyecto.c **** 	else if(tsPressedMsg.x > LCD_WIDTH*2/4 && tsPressedMsg.x < LCD_WIDTH*3/4 && 128 < tsPressedMsg.y &
 4450              		.loc 1 617 0
 4451 1908 CC309FE5 		ldr	r3, .L135
 4452 190c B230D3E1 		ldrh	r3, [r3, #2]
 4453 1910 A00053E3 		cmp	r3, #160
 4454 1914 0D00009A 		bls	.L132
 4455              		.loc 1 617 0 is_stmt 0 discriminator 1
 4456 1918 BC309FE5 		ldr	r3, .L135
 4457 191c B230D3E1 		ldrh	r3, [r3, #2]
 4458 1920 EF0053E3 		cmp	r3, #239
 4459 1924 0900008A 		bhi	.L132
 4460 1928 AC309FE5 		ldr	r3, .L135
 4461 192c B430D3E1 		ldrh	r3, [r3, #4]
 4462 1930 800053E3 		cmp	r3, #128
 4463 1934 0500009A 		bls	.L132
 4464 1938 9C309FE5 		ldr	r3, .L135
 4465 193c B430D3E1 		ldrh	r3, [r3, #4]
 4466 1940 BF0053E3 		cmp	r3, #191
 4467 1944 0100008A 		bhi	.L132
 618:../proyecto.c **** 	{
 619:../proyecto.c **** 		return 5;
 4468              		.loc 1 619 0 is_stmt 1
 4469 1948 0530A0E3 		mov	r3, #5
 4470 194c 1C0000EA 		b	.L127
 4471              	.L132:
 620:../proyecto.c **** 
 621:../proyecto.c **** 	}
 622:../proyecto.c **** 	//PUESTO 7
 623:../proyecto.c **** 	else if(tsPressedMsg.x < LCD_WIDTH*3/4 && 128 < tsPressedMsg.y && tsPressedMsg.y < 192)
 4472              		.loc 1 623 0
 4473 1950 84309FE5 		ldr	r3, .L135
 4474 1954 B230D3E1 		ldrh	r3, [r3, #2]
 4475 1958 EF0053E3 		cmp	r3, #239
 4476 195c 0900008A 		bhi	.L133
 4477              		.loc 1 623 0 is_stmt 0 discriminator 1
 4478 1960 74309FE5 		ldr	r3, .L135
 4479 1964 B430D3E1 		ldrh	r3, [r3, #4]
 4480 1968 800053E3 		cmp	r3, #128
 4481 196c 0500009A 		bls	.L133
 4482 1970 64309FE5 		ldr	r3, .L135
 4483 1974 B430D3E1 		ldrh	r3, [r3, #4]
 4484 1978 BF0053E3 		cmp	r3, #191
 4485 197c 0100008A 		bhi	.L133
 624:../proyecto.c **** 	{
 625:../proyecto.c **** 		return 6;
 4486              		.loc 1 625 0 is_stmt 1
 4487 1980 0630A0E3 		mov	r3, #6
 4488 1984 0E0000EA 		b	.L127
 4489              	.L133:
 626:../proyecto.c **** 
 627:../proyecto.c **** 	}
 628:../proyecto.c **** 	//PUESTO 8
 629:../proyecto.c **** 	else if( tsPressedMsg.x > LCD_WIDTH*3/4 && 128 < tsPressedMsg.y && tsPressedMsg.y < 192 )
 4490              		.loc 1 629 0
 4491 1988 4C309FE5 		ldr	r3, .L135
 4492 198c B230D3E1 		ldrh	r3, [r3, #2]
 4493 1990 F00053E3 		cmp	r3, #240
 4494 1994 0900009A 		bls	.L134
 4495              		.loc 1 629 0 is_stmt 0 discriminator 1
 4496 1998 3C309FE5 		ldr	r3, .L135
 4497 199c B430D3E1 		ldrh	r3, [r3, #4]
 4498 19a0 800053E3 		cmp	r3, #128
 4499 19a4 0500009A 		bls	.L134
 4500 19a8 2C309FE5 		ldr	r3, .L135
 4501 19ac B430D3E1 		ldrh	r3, [r3, #4]
 4502 19b0 BF0053E3 		cmp	r3, #191
 4503 19b4 0100008A 		bhi	.L134
 630:../proyecto.c **** 	{
 631:../proyecto.c **** 		return 7;
 4504              		.loc 1 631 0 is_stmt 1
 4505 19b8 0730A0E3 		mov	r3, #7
 4506 19bc 000000EA 		b	.L127
 4507              	.L134:
 632:../proyecto.c **** 	}
 633:../proyecto.c **** 	return -1;
 4508              		.loc 1 633 0
 4509 19c0 FF30A0E3 		mov	r3, #255
 4510              	.L127:
 4511 19c4 033CA0E1 		mov	r3, r3, asl #24
 4512 19c8 433CA0E1 		mov	r3, r3, asr #24
 634:../proyecto.c **** 
 635:../proyecto.c **** }
 4513              		.loc 1 635 0
 4514 19cc 0300A0E1 		mov	r0, r3
 4515 19d0 0CD04BE2 		sub	sp, fp, #12
 4516 19d4 00689DE8 		ldmfd	sp, {fp, sp, lr}
 4517 19d8 1EFF2FE1 		bx	lr
 4518              	.L136:
 4519              		.align	2
 4520              	.L135:
 4521 19dc 00000000 		.word	tsPressedMsg
 4522              		.cfi_endproc
 4523              	.LFE7:
 4525              		.align	2
 4526              		.global	setup
 4528              	setup:
 4529              	.LFB8:
 636:../proyecto.c **** 
 637:../proyecto.c **** 
 638:../proyecto.c **** /*******************************************************************/
 639:../proyecto.c **** 
 640:../proyecto.c **** /*
 641:../proyecto.c **** ** Inicializa flags, mailboxes y variables globales
 642:../proyecto.c **** */
 643:../proyecto.c **** void setup( void )
 644:../proyecto.c **** {
 4530              		.loc 1 644 0
 4531              		.cfi_startproc
 4532              		@ Function supports interworking.
 4533              		@ args = 0, pretend = 0, frame = 0
 4534              		@ frame_needed = 1, uses_anonymous_args = 0
 4535 19e0 0DC0A0E1 		mov	ip, sp
 4536              	.LCFI16:
 4537              		.cfi_def_cfa_register 12
 4538 19e4 00D82DE9 		stmfd	sp!, {fp, ip, lr, pc}
 4539 19e8 04B04CE2 		sub	fp, ip, #4
 4540              		.cfi_offset 14, -8
 4541              		.cfi_offset 13, -12
 4542              		.cfi_offset 11, -16
 4543              	.LCFI17:
 4544              		.cfi_def_cfa 11, 4
 645:../proyecto.c ****     kpPressedMsg.flag  = FALSE;
 4545              		.loc 1 645 0
 4546 19ec 7C309FE5 		ldr	r3, .L138
 4547 19f0 0020A0E3 		mov	r2, #0
 4548 19f4 0020C3E5 		strb	r2, [r3, #0]
 646:../proyecto.c ****     kpPressedMsg.licPlateInput = FALSE;
 4549              		.loc 1 646 0
 4550 19f8 70309FE5 		ldr	r3, .L138
 4551 19fc 0020A0E3 		mov	r2, #0
 4552 1a00 0120C3E5 		strb	r2, [r3, #1]
 647:../proyecto.c ****     kpPressedMsg.cents = 0;
 4553              		.loc 1 647 0
 4554 1a04 64309FE5 		ldr	r3, .L138
 4555 1a08 0020A0E3 		mov	r2, #0
 4556 1a0c 0220C3E5 		strb	r2, [r3, #2]
 648:../proyecto.c **** 
 649:../proyecto.c ****     tsPressedMsg.flag     = FALSE;
 4557              		.loc 1 649 0
 4558 1a10 5C309FE5 		ldr	r3, .L138+4
 4559 1a14 0020A0E3 		mov	r2, #0
 4560 1a18 0020C3E5 		strb	r2, [r3, #0]
 650:../proyecto.c ****     tsPressedMsg.langFlag = FALSE;
 4561              		.loc 1 650 0
 4562 1a1c 50309FE5 		ldr	r3, .L138+4
 4563 1a20 0020A0E3 		mov	r2, #0
 4564 1a24 0120C3E5 		strb	r2, [r3, #1]
 651:../proyecto.c ****     tsPressedMsg.x        = 0;
 4565              		.loc 1 651 0
 4566 1a28 44309FE5 		ldr	r3, .L138+4
 4567 1a2c 0020A0E3 		mov	r2, #0
 4568 1a30 B220C3E1 		strh	r2, [r3, #2]	@ movhi
 652:../proyecto.c ****     tsPressedMsg.y        = 0;
 4569              		.loc 1 652 0
 4570 1a34 38309FE5 		ldr	r3, .L138+4
 4571 1a38 0020A0E3 		mov	r2, #0
 4572 1a3c B420C3E1 		strh	r2, [r3, #4]	@ movhi
 653:../proyecto.c **** 
 654:../proyecto.c ****     coinsMoverMsg.flag    = FALSE;
 4573              		.loc 1 654 0
 4574 1a40 30309FE5 		ldr	r3, .L138+8
 4575 1a44 0020A0E3 		mov	r2, #0
 4576 1a48 0020C3E5 		strb	r2, [r3, #0]
 655:../proyecto.c ****     coinsMoverMsg.accept  = FALSE;
 4577              		.loc 1 655 0
 4578 1a4c 24309FE5 		ldr	r3, .L138+8
 4579 1a50 0020A0E3 		mov	r2, #0
 4580 1a54 0120C3E5 		strb	r2, [r3, #1]
 656:../proyecto.c **** 
 657:../proyecto.c ****     ticketMsg.flag       = FALSE;
 4581              		.loc 1 657 0
 4582 1a58 1C309FE5 		ldr	r3, .L138+12
 4583 1a5c 0020A0E3 		mov	r2, #0
 4584 1a60 0020C3E5 		strb	r2, [r3, #0]
 658:../proyecto.c **** }
 4585              		.loc 1 658 0
 4586 1a64 0CD04BE2 		sub	sp, fp, #12
 4587 1a68 00689DE8 		ldmfd	sp, {fp, sp, lr}
 4588 1a6c 1EFF2FE1 		bx	lr
 4589              	.L139:
 4590              		.align	2
 4591              	.L138:
 4592 1a70 00000000 		.word	kpPressedMsg
 4593 1a74 00000000 		.word	tsPressedMsg
 4594 1a78 00000000 		.word	coinsMoverMsg
 4595 1a7c 00000000 		.word	ticketMsg
 4596              		.cfi_endproc
 4597              	.LFE8:
 4599              		.align	2
 4600              		.global	plotState
 4602              	plotState:
 4603              	.LFB9:
 659:../proyecto.c **** 
 660:../proyecto.c **** void plotState(state_t state, uint8 placeSelected)
 661:../proyecto.c **** {
 4604              		.loc 1 661 0
 4605              		.cfi_startproc
 4606              		@ Function supports interworking.
 4607              		@ args = 0, pretend = 0, frame = 8
 4608              		@ frame_needed = 1, uses_anonymous_args = 0
 4609 1a80 0DC0A0E1 		mov	ip, sp
 4610              	.LCFI18:
 4611              		.cfi_def_cfa_register 12
 4612 1a84 00D82DE9 		stmfd	sp!, {fp, ip, lr, pc}
 4613 1a88 04B04CE2 		sub	fp, ip, #4
 4614              		.cfi_offset 14, -8
 4615              		.cfi_offset 13, -12
 4616              		.cfi_offset 11, -16
 4617              	.LCFI19:
 4618              		.cfi_def_cfa 11, 4
 4619 1a8c 10D04DE2 		sub	sp, sp, #16
 4620 1a90 0020A0E1 		mov	r2, r0
 4621 1a94 0130A0E1 		mov	r3, r1
 4622 1a98 0D204BE5 		strb	r2, [fp, #-13]
 4623 1a9c 0E304BE5 		strb	r3, [fp, #-14]
 662:../proyecto.c **** 	switch(state)
 4624              		.loc 1 662 0
 4625 1aa0 0D305BE5 		ldrb	r3, [fp, #-13]	@ zero_extendqisi2
 4626 1aa4 070053E3 		cmp	r3, #7
 4627 1aa8 03F19F97 		ldrls	pc, [pc, r3, asl #2]
 4628 1aac 350000EA 		b	.L140
 4629              	.L150:
 4630 1ab0 D01A0000 		.word	.L142
 4631 1ab4 D81A0000 		.word	.L143
 4632 1ab8 E01A0000 		.word	.L144
 4633 1abc EC1A0000 		.word	.L145
 4634 1ac0 2C1B0000 		.word	.L146
 4635 1ac4 481B0000 		.word	.L147
 4636 1ac8 641B0000 		.word	.L148
 4637 1acc 801B0000 		.word	.L149
 4638              	.L142:
 663:../proyecto.c **** 	{
 664:../proyecto.c **** 	case language:
 665:../proyecto.c **** 		plotLangSelScreen();
 4639              		.loc 1 665 0
 4640 1ad0 FEFFFFEB 		bl	plotLangSelScreen
 666:../proyecto.c **** 		break;
 4641              		.loc 1 666 0
 4642 1ad4 2B0000EA 		b	.L140
 4643              	.L143:
 667:../proyecto.c **** 	case waiting:
 668:../proyecto.c **** 		plotWelcomeScreen();
 4644              		.loc 1 668 0
 4645 1ad8 FEFFFFEB 		bl	plotWelcomeScreen
 669:../proyecto.c **** 		break;
 4646              		.loc 1 669 0
 4647 1adc 290000EA 		b	.L140
 4648              	.L144:
 670:../proyecto.c **** 	case selection:
 671:../proyecto.c **** 		plotSelectionScreen(parking);
 4649              		.loc 1 671 0
 4650 1ae0 AC009FE5 		ldr	r0, .L151
 4651 1ae4 FEFFFFEB 		bl	plotSelectionScreen
 672:../proyecto.c **** 		break;
 4652              		.loc 1 672 0
 4653 1ae8 260000EA 		b	.L140
 4654              	.L145:
 673:../proyecto.c **** 	case payment:
 674:../proyecto.c **** 		plotPaymentScreen(parking[placeSelected],parking[placeSelected].credit);
 4655              		.loc 1 674 0
 4656 1aec 0E305BE5 		ldrb	r3, [fp, #-14]	@ zero_extendqisi2
 4657 1af0 0E105BE5 		ldrb	r1, [fp, #-14]	@ zero_extendqisi2
 4658 1af4 98009FE5 		ldr	r0, .L151
 4659 1af8 0820A0E3 		mov	r2, #8
 4660 1afc 0112A0E1 		mov	r1, r1, asl #4
 4661 1b00 011080E0 		add	r1, r0, r1
 4662 1b04 022081E0 		add	r2, r1, r2
 4663 1b08 B420D2E1 		ldrh	r2, [r2, #4]
 4664 1b0c FF1002E2 		and	r1, r2, #255
 4665 1b10 7C209FE5 		ldr	r2, .L151
 4666 1b14 00108DE5 		str	r1, [sp, #0]
 4667 1b18 0332A0E1 		mov	r3, r3, asl #4
 4668 1b1c 033082E0 		add	r3, r2, r3
 4669 1b20 0F0093E8 		ldmia	r3, {r0, r1, r2, r3}
 4670 1b24 FEFFFFEB 		bl	plotPaymentScreen
 675:../proyecto.c **** 		break;
 4671              		.loc 1 675 0
 4672 1b28 160000EA 		b	.L140
 4673              	.L146:
 676:../proyecto.c **** 	case licPlateInput:
 677:../proyecto.c **** 		plotLicPlateScreen(parking[placeSelected]);
 4674              		.loc 1 677 0
 4675 1b2c 0E305BE5 		ldrb	r3, [fp, #-14]	@ zero_extendqisi2
 4676 1b30 5C209FE5 		ldr	r2, .L151
 4677 1b34 0332A0E1 		mov	r3, r3, asl #4
 4678 1b38 033082E0 		add	r3, r2, r3
 4679 1b3c 0F0093E8 		ldmia	r3, {r0, r1, r2, r3}
 4680 1b40 FEFFFFEB 		bl	plotLicPlateScreen
 678:../proyecto.c **** 		break;
 4681              		.loc 1 678 0
 4682 1b44 0F0000EA 		b	.L140
 4683              	.L147:
 679:../proyecto.c **** 	case success:
 680:../proyecto.c **** 		plotSucScreen(parking[placeSelected]);
 4684              		.loc 1 680 0
 4685 1b48 0E305BE5 		ldrb	r3, [fp, #-14]	@ zero_extendqisi2
 4686 1b4c 40209FE5 		ldr	r2, .L151
 4687 1b50 0332A0E1 		mov	r3, r3, asl #4
 4688 1b54 033082E0 		add	r3, r2, r3
 4689 1b58 0F0093E8 		ldmia	r3, {r0, r1, r2, r3}
 4690 1b5c FEFFFFEB 		bl	plotSucScreen
 681:../proyecto.c **** 		break;
 4691              		.loc 1 681 0
 4692 1b60 080000EA 		b	.L140
 4693              	.L148:
 682:../proyecto.c **** 	case error:
 683:../proyecto.c **** 		plotErrorScreen(parking[placeSelected]);
 4694              		.loc 1 683 0
 4695 1b64 0E305BE5 		ldrb	r3, [fp, #-14]	@ zero_extendqisi2
 4696 1b68 24209FE5 		ldr	r2, .L151
 4697 1b6c 0332A0E1 		mov	r3, r3, asl #4
 4698 1b70 033082E0 		add	r3, r2, r3
 4699 1b74 0F0093E8 		ldmia	r3, {r0, r1, r2, r3}
 4700 1b78 FEFFFFEB 		bl	plotErrorScreen
 684:../proyecto.c **** 		break;
 4701              		.loc 1 684 0
 4702 1b7c 010000EA 		b	.L140
 4703              	.L149:
 685:../proyecto.c **** 	case exit:
 686:../proyecto.c **** 		plotLicPlateDemand();
 4704              		.loc 1 686 0
 4705 1b80 FEFFFFEB 		bl	plotLicPlateDemand
 687:../proyecto.c **** 		break;
 4706              		.loc 1 687 0
 4707 1b84 0000A0E1 		mov	r0, r0	@ nop
 4708              	.L140:
 688:../proyecto.c **** 	}
 689:../proyecto.c **** }
 4709              		.loc 1 689 0
 4710 1b88 0CD04BE2 		sub	sp, fp, #12
 4711 1b8c 00689DE8 		ldmfd	sp, {fp, sp, lr}
 4712 1b90 1EFF2FE1 		bx	lr
 4713              	.L152:
 4714              		.align	2
 4715              	.L151:
 4716 1b94 00000000 		.word	parking
 4717              		.cfi_endproc
 4718              	.LFE9:
 4720              		.align	2
 4721              		.global	getMonthdays
 4723              	getMonthdays:
 4724              	.LFB10:
 690:../proyecto.c **** 
 691:../proyecto.c **** uint8 getMonthdays(uint8 month){
 4725              		.loc 1 691 0
 4726              		.cfi_startproc
 4727              		@ Function supports interworking.
 4728              		@ args = 0, pretend = 0, frame = 16
 4729              		@ frame_needed = 1, uses_anonymous_args = 0
 4730 1b98 0DC0A0E1 		mov	ip, sp
 4731              	.LCFI20:
 4732              		.cfi_def_cfa_register 12
 4733 1b9c 00D82DE9 		stmfd	sp!, {fp, ip, lr, pc}
 4734 1ba0 04B04CE2 		sub	fp, ip, #4
 4735              		.cfi_offset 14, -8
 4736              		.cfi_offset 13, -12
 4737              		.cfi_offset 11, -16
 4738              	.LCFI21:
 4739              		.cfi_def_cfa 11, 4
 4740 1ba4 10D04DE2 		sub	sp, sp, #16
 4741 1ba8 0030A0E1 		mov	r3, r0
 4742 1bac 15304BE5 		strb	r3, [fp, #-21]
 692:../proyecto.c **** 	uint8 totdays;
 693:../proyecto.c **** 	if(month == 2)
 4743              		.loc 1 693 0
 4744 1bb0 15305BE5 		ldrb	r3, [fp, #-21]	@ zero_extendqisi2
 4745 1bb4 020053E3 		cmp	r3, #2
 4746 1bb8 0200001A 		bne	.L154
 694:../proyecto.c **** 		totdays = 28;
 4747              		.loc 1 694 0
 4748 1bbc 1C30A0E3 		mov	r3, #28
 4749 1bc0 0D304BE5 		strb	r3, [fp, #-13]
 4750 1bc4 120000EA 		b	.L155
 4751              	.L154:
 695:../proyecto.c **** 	else if((month < 8 && month%2) || (month <= 8 && !month%2))
 4752              		.loc 1 695 0
 4753 1bc8 15305BE5 		ldrb	r3, [fp, #-21]	@ zero_extendqisi2
 4754 1bcc 070053E3 		cmp	r3, #7
 4755 1bd0 0400008A 		bhi	.L156
 4756              		.loc 1 695 0 is_stmt 0 discriminator 1
 4757 1bd4 15305BE5 		ldrb	r3, [fp, #-21]	@ zero_extendqisi2
 4758 1bd8 013003E2 		and	r3, r3, #1
 4759 1bdc FF3003E2 		and	r3, r3, #255
 4760 1be0 000053E3 		cmp	r3, #0
 4761 1be4 0500001A 		bne	.L157
 4762              	.L156:
 4763              		.loc 1 695 0 discriminator 2
 4764 1be8 15305BE5 		ldrb	r3, [fp, #-21]	@ zero_extendqisi2
 4765 1bec 080053E3 		cmp	r3, #8
 4766 1bf0 0500008A 		bhi	.L158
 4767              		.loc 1 695 0 discriminator 1
 4768 1bf4 15305BE5 		ldrb	r3, [fp, #-21]	@ zero_extendqisi2
 4769 1bf8 000053E3 		cmp	r3, #0
 4770 1bfc 0200001A 		bne	.L158
 4771              	.L157:
 696:../proyecto.c **** 		totdays = 31;
 4772              		.loc 1 696 0 is_stmt 1
 4773 1c00 1F30A0E3 		mov	r3, #31
 4774 1c04 0D304BE5 		strb	r3, [fp, #-13]
 4775 1c08 010000EA 		b	.L155
 4776              	.L158:
 697:../proyecto.c **** 	else
 698:../proyecto.c **** 		totdays = 30;
 4777              		.loc 1 698 0
 4778 1c0c 1E30A0E3 		mov	r3, #30
 4779 1c10 0D304BE5 		strb	r3, [fp, #-13]
 4780              	.L155:
 699:../proyecto.c **** 
 700:../proyecto.c **** 	return totdays;
 4781              		.loc 1 700 0
 4782 1c14 0D305BE5 		ldrb	r3, [fp, #-13]	@ zero_extendqisi2
 701:../proyecto.c **** }
 4783              		.loc 1 701 0
 4784 1c18 0300A0E1 		mov	r0, r3
 4785 1c1c 0CD04BE2 		sub	sp, fp, #12
 4786 1c20 00689DE8 		ldmfd	sp, {fp, sp, lr}
 4787 1c24 1EFF2FE1 		bx	lr
 4788              		.cfi_endproc
 4789              	.LFE10:
 4791              		.align	2
 4792              		.global	updateDeadline
 4794              	updateDeadline:
 4795              	.LFB11:
 702:../proyecto.c **** 
 703:../proyecto.c **** 
 704:../proyecto.c **** void updateDeadline(uint16 credit, rtc_time_t * deadline)
 705:../proyecto.c **** {
 4796              		.loc 1 705 0
 4797              		.cfi_startproc
 4798              		@ Function supports interworking.
 4799              		@ args = 0, pretend = 0, frame = 16
 4800              		@ frame_needed = 1, uses_anonymous_args = 0
 4801 1c28 0DC0A0E1 		mov	ip, sp
 4802              	.LCFI22:
 4803              		.cfi_def_cfa_register 12
 4804 1c2c 10D82DE9 		stmfd	sp!, {r4, fp, ip, lr, pc}
 4805 1c30 04B04CE2 		sub	fp, ip, #4
 4806              		.cfi_offset 14, -8
 4807              		.cfi_offset 13, -12
 4808              		.cfi_offset 11, -16
 4809              		.cfi_offset 4, -20
 4810              	.LCFI23:
 4811              		.cfi_def_cfa 11, 4
 4812 1c34 14D04DE2 		sub	sp, sp, #20
 4813 1c38 0030A0E1 		mov	r3, r0
 4814 1c3c 24100BE5 		str	r1, [fp, #-36]
 4815 1c40 BE314BE1 		strh	r3, [fp, #-30]	@ movhi
 706:../proyecto.c **** 	uint8 hours = credit/60;
 4816              		.loc 1 706 0
 4817 1c44 BE215BE1 		ldrh	r2, [fp, #-30]
 4818 1c48 C4319FE5 		ldr	r3, .L164
 4819 1c4c 921383E0 		umull	r1, r3, r2, r3
 4820 1c50 A332A0E1 		mov	r3, r3, lsr #5
 4821 1c54 0338A0E1 		mov	r3, r3, asl #16
 4822 1c58 2338A0E1 		mov	r3, r3, lsr #16
 4823 1c5c 15304BE5 		strb	r3, [fp, #-21]
 707:../proyecto.c **** 	uint8 mins = credit%60;
 4824              		.loc 1 707 0
 4825 1c60 BE215BE1 		ldrh	r2, [fp, #-30]
 4826 1c64 A8319FE5 		ldr	r3, .L164
 4827 1c68 921383E0 		umull	r1, r3, r2, r3
 4828 1c6c A312A0E1 		mov	r1, r3, lsr #5
 4829 1c70 0130A0E1 		mov	r3, r1
 4830 1c74 0332A0E1 		mov	r3, r3, asl #4
 4831 1c78 033061E0 		rsb	r3, r1, r3
 4832 1c7c 0331A0E1 		mov	r3, r3, asl #2
 4833 1c80 023063E0 		rsb	r3, r3, r2
 4834 1c84 0338A0E1 		mov	r3, r3, asl #16
 4835 1c88 2338A0E1 		mov	r3, r3, lsr #16
 4836 1c8c 16304BE5 		strb	r3, [fp, #-22]
 708:../proyecto.c **** 
 709:../proyecto.c **** 	if((deadline->min += mins) >= 60){
 4837              		.loc 1 709 0
 4838 1c90 24301BE5 		ldr	r3, [fp, #-36]
 4839 1c94 0120D3E5 		ldrb	r2, [r3, #1]	@ zero_extendqisi2
 4840 1c98 16305BE5 		ldrb	r3, [fp, #-22]
 4841 1c9c 033082E0 		add	r3, r2, r3
 4842 1ca0 FF2003E2 		and	r2, r3, #255
 4843 1ca4 24301BE5 		ldr	r3, [fp, #-36]
 4844 1ca8 0120C3E5 		strb	r2, [r3, #1]
 4845 1cac 24301BE5 		ldr	r3, [fp, #-36]
 4846 1cb0 0130D3E5 		ldrb	r3, [r3, #1]	@ zero_extendqisi2
 4847 1cb4 3B0053E3 		cmp	r3, #59
 4848 1cb8 1200009A 		bls	.L160
 710:../proyecto.c **** 		deadline->hour++;
 4849              		.loc 1 710 0
 4850 1cbc 24301BE5 		ldr	r3, [fp, #-36]
 4851 1cc0 0230D3E5 		ldrb	r3, [r3, #2]	@ zero_extendqisi2
 4852 1cc4 013083E2 		add	r3, r3, #1
 4853 1cc8 FF2003E2 		and	r2, r3, #255
 4854 1ccc 24301BE5 		ldr	r3, [fp, #-36]
 4855 1cd0 0220C3E5 		strb	r2, [r3, #2]
 711:../proyecto.c **** 		deadline->min %= 60;
 4856              		.loc 1 711 0
 4857 1cd4 24301BE5 		ldr	r3, [fp, #-36]
 4858 1cd8 0120D3E5 		ldrb	r2, [r3, #1]	@ zero_extendqisi2
 4859 1cdc 30319FE5 		ldr	r3, .L164
 4860 1ce0 921383E0 		umull	r1, r3, r2, r3
 4861 1ce4 A312A0E1 		mov	r1, r3, lsr #5
 4862 1ce8 0130A0E1 		mov	r3, r1
 4863 1cec 0332A0E1 		mov	r3, r3, asl #4
 4864 1cf0 033061E0 		rsb	r3, r1, r3
 4865 1cf4 0331A0E1 		mov	r3, r3, asl #2
 4866 1cf8 023063E0 		rsb	r3, r3, r2
 4867 1cfc FF2003E2 		and	r2, r3, #255
 4868 1d00 24301BE5 		ldr	r3, [fp, #-36]
 4869 1d04 0120C3E5 		strb	r2, [r3, #1]
 4870              	.L160:
 712:../proyecto.c **** 	}
 713:../proyecto.c **** 	if((deadline->hour += hours) >= 24){
 4871              		.loc 1 713 0
 4872 1d08 24301BE5 		ldr	r3, [fp, #-36]
 4873 1d0c 0220D3E5 		ldrb	r2, [r3, #2]	@ zero_extendqisi2
 4874 1d10 15305BE5 		ldrb	r3, [fp, #-21]
 4875 1d14 033082E0 		add	r3, r2, r3
 4876 1d18 FF2003E2 		and	r2, r3, #255
 4877 1d1c 24301BE5 		ldr	r3, [fp, #-36]
 4878 1d20 0220C3E5 		strb	r2, [r3, #2]
 4879 1d24 24301BE5 		ldr	r3, [fp, #-36]
 4880 1d28 0230D3E5 		ldrb	r3, [r3, #2]	@ zero_extendqisi2
 4881 1d2c 170053E3 		cmp	r3, #23
 4882 1d30 1800009A 		bls	.L161
 714:../proyecto.c **** 		deadline->hour %= 24;
 4883              		.loc 1 714 0
 4884 1d34 24301BE5 		ldr	r3, [fp, #-36]
 4885 1d38 0220D3E5 		ldrb	r2, [r3, #2]	@ zero_extendqisi2
 4886 1d3c D4309FE5 		ldr	r3, .L164+4
 4887 1d40 921383E0 		umull	r1, r3, r2, r3
 4888 1d44 2312A0E1 		mov	r1, r3, lsr #4
 4889 1d48 0130A0E1 		mov	r3, r1
 4890 1d4c 8330A0E1 		mov	r3, r3, asl #1
 4891 1d50 013083E0 		add	r3, r3, r1
 4892 1d54 8331A0E1 		mov	r3, r3, asl #3
 4893 1d58 023063E0 		rsb	r3, r3, r2
 4894 1d5c FF2003E2 		and	r2, r3, #255
 4895 1d60 24301BE5 		ldr	r3, [fp, #-36]
 4896 1d64 0220C3E5 		strb	r2, [r3, #2]
 715:../proyecto.c **** 		deadline->mday++;
 4897              		.loc 1 715 0
 4898 1d68 24301BE5 		ldr	r3, [fp, #-36]
 4899 1d6c 0330D3E5 		ldrb	r3, [r3, #3]	@ zero_extendqisi2
 4900 1d70 013083E2 		add	r3, r3, #1
 4901 1d74 FF2003E2 		and	r2, r3, #255
 4902 1d78 24301BE5 		ldr	r3, [fp, #-36]
 4903 1d7c 0320C3E5 		strb	r2, [r3, #3]
 716:../proyecto.c **** 		deadline->wday++;
 4904              		.loc 1 716 0
 4905 1d80 24301BE5 		ldr	r3, [fp, #-36]
 4906 1d84 0430D3E5 		ldrb	r3, [r3, #4]	@ zero_extendqisi2
 4907 1d88 013083E2 		add	r3, r3, #1
 4908 1d8c FF2003E2 		and	r2, r3, #255
 4909 1d90 24301BE5 		ldr	r3, [fp, #-36]
 4910 1d94 0420C3E5 		strb	r2, [r3, #4]
 4911              	.L161:
 717:../proyecto.c **** 	}
 718:../proyecto.c **** 	if(deadline->mday > getMonthdays(deadline->mon)){
 4912              		.loc 1 718 0
 4913 1d98 24301BE5 		ldr	r3, [fp, #-36]
 4914 1d9c 0340D3E5 		ldrb	r4, [r3, #3]	@ zero_extendqisi2
 4915 1da0 24301BE5 		ldr	r3, [fp, #-36]
 4916 1da4 0530D3E5 		ldrb	r3, [r3, #5]	@ zero_extendqisi2
 4917 1da8 0300A0E1 		mov	r0, r3
 4918 1dac FEFFFFEB 		bl	getMonthdays
 4919 1db0 0030A0E1 		mov	r3, r0
 4920 1db4 030054E1 		cmp	r4, r3
 4921 1db8 0800009A 		bls	.L162
 719:../proyecto.c **** 		deadline->mon++;
 4922              		.loc 1 719 0
 4923 1dbc 24301BE5 		ldr	r3, [fp, #-36]
 4924 1dc0 0530D3E5 		ldrb	r3, [r3, #5]	@ zero_extendqisi2
 4925 1dc4 013083E2 		add	r3, r3, #1
 4926 1dc8 FF2003E2 		and	r2, r3, #255
 4927 1dcc 24301BE5 		ldr	r3, [fp, #-36]
 4928 1dd0 0520C3E5 		strb	r2, [r3, #5]
 720:../proyecto.c **** 		deadline->mday = 1;
 4929              		.loc 1 720 0
 4930 1dd4 24301BE5 		ldr	r3, [fp, #-36]
 4931 1dd8 0120A0E3 		mov	r2, #1
 4932 1ddc 0320C3E5 		strb	r2, [r3, #3]
 4933              	.L162:
 721:../proyecto.c **** 	}
 722:../proyecto.c **** 	if(deadline->mon > 12)
 4934              		.loc 1 722 0
 4935 1de0 24301BE5 		ldr	r3, [fp, #-36]
 4936 1de4 0530D3E5 		ldrb	r3, [r3, #5]	@ zero_extendqisi2
 4937 1de8 0C0053E3 		cmp	r3, #12
 4938 1dec 0500009A 		bls	.L159
 723:../proyecto.c **** 		deadline->year++;
 4939              		.loc 1 723 0
 4940 1df0 24301BE5 		ldr	r3, [fp, #-36]
 4941 1df4 0630D3E5 		ldrb	r3, [r3, #6]	@ zero_extendqisi2
 4942 1df8 013083E2 		add	r3, r3, #1
 4943 1dfc FF2003E2 		and	r2, r3, #255
 4944 1e00 24301BE5 		ldr	r3, [fp, #-36]
 4945 1e04 0620C3E5 		strb	r2, [r3, #6]
 4946              	.L159:
 724:../proyecto.c **** 
 725:../proyecto.c **** 
 726:../proyecto.c **** }
 4947              		.loc 1 726 0
 4948 1e08 10D04BE2 		sub	sp, fp, #16
 4949 1e0c 10689DE8 		ldmfd	sp, {r4, fp, sp, lr}
 4950 1e10 1EFF2FE1 		bx	lr
 4951              	.L165:
 4952              		.align	2
 4953              	.L164:
 4954 1e14 89888888 		.word	-2004318071
 4955 1e18 ABAAAAAA 		.word	-1431655765
 4956              		.cfi_endproc
 4957              	.LFE11:
 4959              		.align	2
 4960              		.global	getLicPlate
 4962              	getLicPlate:
 4963              	.LFB12:
 727:../proyecto.c **** 
 728:../proyecto.c **** uint8 getLicPlate(uint16 * licPlate)
 729:../proyecto.c **** {
 4964              		.loc 1 729 0
 4965              		.cfi_startproc
 4966              		@ Function supports interworking.
 4967              		@ args = 0, pretend = 0, frame = 8
 4968              		@ frame_needed = 1, uses_anonymous_args = 0
 4969 1e1c 0DC0A0E1 		mov	ip, sp
 4970              	.LCFI24:
 4971              		.cfi_def_cfa_register 12
 4972 1e20 00D82DE9 		stmfd	sp!, {fp, ip, lr, pc}
 4973 1e24 04B04CE2 		sub	fp, ip, #4
 4974              		.cfi_offset 14, -8
 4975              		.cfi_offset 13, -12
 4976              		.cfi_offset 11, -16
 4977              	.LCFI25:
 4978              		.cfi_def_cfa 11, 4
 4979 1e28 08D04DE2 		sub	sp, sp, #8
 4980 1e2c 10000BE5 		str	r0, [fp, #-16]
 730:../proyecto.c **** 	static uint8 licPlatePoint =0;
 731:../proyecto.c **** 
 732:../proyecto.c **** 	if(kpPressedMsg.keyPress == KEYPAD_FAILURE)
 4981              		.loc 1 732 0
 4982 1e30 D0309FE5 		ldr	r3, .L171
 4983 1e34 0330D3E5 		ldrb	r3, [r3, #3]	@ zero_extendqisi2
 4984 1e38 FF0053E3 		cmp	r3, #255
 4985 1e3c 0100001A 		bne	.L167
 733:../proyecto.c **** 		return 0;
 4986              		.loc 1 733 0
 4987 1e40 0030A0E3 		mov	r3, #0
 4988 1e44 2B0000EA 		b	.L168
 4989              	.L167:
 734:../proyecto.c **** 	if(licPlatePoint == 4 && *licPlate != 0)
 4990              		.loc 1 734 0
 4991 1e48 BC309FE5 		ldr	r3, .L171+4
 4992 1e4c 0030D3E5 		ldrb	r3, [r3, #0]	@ zero_extendqisi2
 4993 1e50 040053E3 		cmp	r3, #4
 4994 1e54 0500001A 		bne	.L169
 4995              		.loc 1 734 0 is_stmt 0 discriminator 1
 4996 1e58 10301BE5 		ldr	r3, [fp, #-16]
 4997 1e5c B030D3E1 		ldrh	r3, [r3, #0]
 4998 1e60 000053E3 		cmp	r3, #0
 4999 1e64 0100000A 		beq	.L169
 735:../proyecto.c **** 		return 0;
 5000              		.loc 1 735 0 is_stmt 1
 5001 1e68 0030A0E3 		mov	r3, #0
 5002 1e6c 210000EA 		b	.L168
 5003              	.L169:
 736:../proyecto.c **** 	else if(*licPlate == 0)
 5004              		.loc 1 736 0
 5005 1e70 10301BE5 		ldr	r3, [fp, #-16]
 5006 1e74 B030D3E1 		ldrh	r3, [r3, #0]
 5007 1e78 000053E3 		cmp	r3, #0
 5008 1e7c 0200001A 		bne	.L170
 737:../proyecto.c **** 		licPlatePoint = 0;
 5009              		.loc 1 737 0
 5010 1e80 84309FE5 		ldr	r3, .L171+4
 5011 1e84 0020A0E3 		mov	r2, #0
 5012 1e88 0020C3E5 		strb	r2, [r3, #0]
 5013              	.L170:
 738:../proyecto.c **** 
 739:../proyecto.c **** 	*licPlate |= ( kpPressedMsg.keyPress << (licPlatePoint*4)); //hacemos un OR entre licPlate y la te
 5014              		.loc 1 739 0
 5015 1e8c 10301BE5 		ldr	r3, [fp, #-16]
 5016 1e90 B030D3E1 		ldrh	r3, [r3, #0]
 5017 1e94 0338A0E1 		mov	r3, r3, asl #16
 5018 1e98 2328A0E1 		mov	r2, r3, lsr #16
 5019 1e9c 64309FE5 		ldr	r3, .L171
 5020 1ea0 0330D3E5 		ldrb	r3, [r3, #3]	@ zero_extendqisi2
 5021 1ea4 0310A0E1 		mov	r1, r3
 5022 1ea8 5C309FE5 		ldr	r3, .L171+4
 5023 1eac 0030D3E5 		ldrb	r3, [r3, #0]	@ zero_extendqisi2
 5024 1eb0 0331A0E1 		mov	r3, r3, asl #2
 5025 1eb4 1133A0E1 		mov	r3, r1, asl r3
 5026 1eb8 0338A0E1 		mov	r3, r3, asl #16
 5027 1ebc 2338A0E1 		mov	r3, r3, lsr #16
 5028 1ec0 033082E1 		orr	r3, r2, r3
 5029 1ec4 0338A0E1 		mov	r3, r3, asl #16
 5030 1ec8 2338A0E1 		mov	r3, r3, lsr #16
 5031 1ecc 0338A0E1 		mov	r3, r3, asl #16
 5032 1ed0 2328A0E1 		mov	r2, r3, lsr #16
 5033 1ed4 10301BE5 		ldr	r3, [fp, #-16]
 5034 1ed8 B020C3E1 		strh	r2, [r3, #0]	@ movhi
 740:../proyecto.c **** 	licPlatePoint++;
 5035              		.loc 1 740 0
 5036 1edc 28309FE5 		ldr	r3, .L171+4
 5037 1ee0 0030D3E5 		ldrb	r3, [r3, #0]	@ zero_extendqisi2
 5038 1ee4 013083E2 		add	r3, r3, #1
 5039 1ee8 FF2003E2 		and	r2, r3, #255
 5040 1eec 18309FE5 		ldr	r3, .L171+4
 5041 1ef0 0020C3E5 		strb	r2, [r3, #0]
 741:../proyecto.c **** 	return 1;
 5042              		.loc 1 741 0
 5043 1ef4 0130A0E3 		mov	r3, #1
 5044              	.L168:
 742:../proyecto.c **** }
 5045              		.loc 1 742 0
 5046 1ef8 0300A0E1 		mov	r0, r3
 5047 1efc 0CD04BE2 		sub	sp, fp, #12
 5048 1f00 00689DE8 		ldmfd	sp, {fp, sp, lr}
 5049 1f04 1EFF2FE1 		bx	lr
 5050              	.L172:
 5051              		.align	2
 5052              	.L171:
 5053 1f08 00000000 		.word	kpPressedMsg
 5054 1f0c 00000000 		.word	licPlatePoint.4465
 5055              		.cfi_endproc
 5056              	.LFE12:
 5058              		.align	2
 5059              		.global	changeLang
 5061              	changeLang:
 5062              	.LFB13:
 743:../proyecto.c **** 
 744:../proyecto.c **** int8 changeLang()
 745:../proyecto.c **** {
 5063              		.loc 1 745 0
 5064              		.cfi_startproc
 5065              		@ Function supports interworking.
 5066              		@ args = 0, pretend = 0, frame = 8
 5067              		@ frame_needed = 1, uses_anonymous_args = 0
 5068 1f10 0DC0A0E1 		mov	ip, sp
 5069              	.LCFI26:
 5070              		.cfi_def_cfa_register 12
 5071 1f14 00D82DE9 		stmfd	sp!, {fp, ip, lr, pc}
 5072 1f18 04B04CE2 		sub	fp, ip, #4
 5073              		.cfi_offset 14, -8
 5074              		.cfi_offset 13, -12
 5075              		.cfi_offset 11, -16
 5076              	.LCFI27:
 5077              		.cfi_def_cfa 11, 4
 5078 1f1c 08D04DE2 		sub	sp, sp, #8
 746:../proyecto.c **** 	int8 lang;
 747:../proyecto.c **** 	lang = -1;
 5079              		.loc 1 747 0
 5080 1f20 0030E0E3 		mvn	r3, #0
 5081 1f24 0D304BE5 		strb	r3, [fp, #-13]
 748:../proyecto.c **** 	if(tsPressedMsg.x > LCD_WIDTH/4-24 && tsPressedMsg.x < LCD_WIDTH/4 + 24 && tsPressedMsg.y > 76 && 
 5082              		.loc 1 748 0
 5083 1f28 10319FE5 		ldr	r3, .L178
 5084 1f2c B230D3E1 		ldrh	r3, [r3, #2]
 5085 1f30 380053E3 		cmp	r3, #56
 5086 1f34 0E00009A 		bls	.L174
 5087              		.loc 1 748 0 is_stmt 0 discriminator 1
 5088 1f38 00319FE5 		ldr	r3, .L178
 5089 1f3c B230D3E1 		ldrh	r3, [r3, #2]
 5090 1f40 670053E3 		cmp	r3, #103
 5091 1f44 0A00008A 		bhi	.L174
 5092 1f48 F0309FE5 		ldr	r3, .L178
 5093 1f4c B430D3E1 		ldrh	r3, [r3, #4]
 5094 1f50 4C0053E3 		cmp	r3, #76
 5095 1f54 0600009A 		bls	.L174
 5096 1f58 E0309FE5 		ldr	r3, .L178
 5097 1f5c B430D3E1 		ldrh	r3, [r3, #4]
 5098 1f60 7D0053E3 		cmp	r3, #125
 5099 1f64 0200008A 		bhi	.L174
 749:../proyecto.c **** 		lang = ESP;
 5100              		.loc 1 749 0 is_stmt 1
 5101 1f68 0030A0E3 		mov	r3, #0
 5102 1f6c 0D304BE5 		strb	r3, [fp, #-13]
 5103 1f70 250000EA 		b	.L175
 5104              	.L174:
 750:../proyecto.c **** 	else if(tsPressedMsg.x > LCD_WIDTH*3/4-24 && tsPressedMsg.x < LCD_WIDTH*3/4 +24 && tsPressedMsg.y 
 5105              		.loc 1 750 0
 5106 1f74 C4309FE5 		ldr	r3, .L178
 5107 1f78 B230D3E1 		ldrh	r3, [r3, #2]
 5108 1f7c D80053E3 		cmp	r3, #216
 5109 1f80 0F00009A 		bls	.L176
 5110              		.loc 1 750 0 is_stmt 0 discriminator 1
 5111 1f84 B4309FE5 		ldr	r3, .L178
 5112 1f88 B220D3E1 		ldrh	r2, [r3, #2]
 5113 1f8c B0309FE5 		ldr	r3, .L178+4
 5114 1f90 030052E1 		cmp	r2, r3
 5115 1f94 0A00008A 		bhi	.L176
 5116 1f98 A0309FE5 		ldr	r3, .L178
 5117 1f9c B430D3E1 		ldrh	r3, [r3, #4]
 5118 1fa0 4C0053E3 		cmp	r3, #76
 5119 1fa4 0600009A 		bls	.L176
 5120 1fa8 90309FE5 		ldr	r3, .L178
 5121 1fac B430D3E1 		ldrh	r3, [r3, #4]
 5122 1fb0 7D0053E3 		cmp	r3, #125
 5123 1fb4 0200008A 		bhi	.L176
 751:../proyecto.c **** 		lang = ENG;
 5124              		.loc 1 751 0 is_stmt 1
 5125 1fb8 0130A0E3 		mov	r3, #1
 5126 1fbc 0D304BE5 		strb	r3, [fp, #-13]
 5127 1fc0 110000EA 		b	.L175
 5128              	.L176:
 752:../proyecto.c **** 	else if(tsPressedMsg.x > LCD_WIDTH/2-24 && tsPressedMsg.x < LCD_WIDTH/2 + 24 && tsPressedMsg.y > 1
 5129              		.loc 1 752 0
 5130 1fc4 74309FE5 		ldr	r3, .L178
 5131 1fc8 B230D3E1 		ldrh	r3, [r3, #2]
 5132 1fcc 880053E3 		cmp	r3, #136
 5133 1fd0 0D00009A 		bls	.L175
 5134              		.loc 1 752 0 is_stmt 0 discriminator 1
 5135 1fd4 64309FE5 		ldr	r3, .L178
 5136 1fd8 B230D3E1 		ldrh	r3, [r3, #2]
 5137 1fdc B70053E3 		cmp	r3, #183
 5138 1fe0 0900008A 		bhi	.L175
 5139 1fe4 54309FE5 		ldr	r3, .L178
 5140 1fe8 B430D3E1 		ldrh	r3, [r3, #4]
 5141 1fec 920053E3 		cmp	r3, #146
 5142 1ff0 0500009A 		bls	.L175
 5143 1ff4 44309FE5 		ldr	r3, .L178
 5144 1ff8 B430D3E1 		ldrh	r3, [r3, #4]
 5145 1ffc D50053E3 		cmp	r3, #213
 5146 2000 0100008A 		bhi	.L175
 753:../proyecto.c **** 		lang = LAT;
 5147              		.loc 1 753 0 is_stmt 1
 5148 2004 0230A0E3 		mov	r3, #2
 5149 2008 0D304BE5 		strb	r3, [fp, #-13]
 5150              	.L175:
 754:../proyecto.c **** 
 755:../proyecto.c **** 	if(lang > 0)
 5151              		.loc 1 755 0
 5152 200c DD305BE1 		ldrsb	r3, [fp, #-13]
 5153 2010 000053E3 		cmp	r3, #0
 5154 2014 020000DA 		ble	.L177
 756:../proyecto.c **** 		changeScreenLang(lang);
 5155              		.loc 1 756 0
 5156 2018 DD305BE1 		ldrsb	r3, [fp, #-13]
 5157 201c 0300A0E1 		mov	r0, r3
 5158 2020 FEFFFFEB 		bl	changeScreenLang
 5159              	.L177:
 757:../proyecto.c **** 
 758:../proyecto.c **** 	return lang;
 5160              		.loc 1 758 0
 5161 2024 0D305BE5 		ldrb	r3, [fp, #-13]	@ zero_extendqisi2
 5162 2028 033CA0E1 		mov	r3, r3, asl #24
 5163 202c 433CA0E1 		mov	r3, r3, asr #24
 759:../proyecto.c **** }
 5164              		.loc 1 759 0
 5165 2030 0300A0E1 		mov	r0, r3
 5166 2034 0CD04BE2 		sub	sp, fp, #12
 5167 2038 00689DE8 		ldmfd	sp, {fp, sp, lr}
 5168 203c 1EFF2FE1 		bx	lr
 5169              	.L179:
 5170              		.align	2
 5171              	.L178:
 5172 2040 00000000 		.word	tsPressedMsg
 5173 2044 07010000 		.word	263
 5174              		.cfi_endproc
 5175              	.LFE13:
 5177              		.align	2
 5178              		.global	exitSol
 5180              	exitSol:
 5181              	.LFB14:
 760:../proyecto.c **** 
 761:../proyecto.c **** int8 exitSol()
 762:../proyecto.c **** {
 5182              		.loc 1 762 0
 5183              		.cfi_startproc
 5184              		@ Function supports interworking.
 5185              		@ args = 0, pretend = 0, frame = 0
 5186              		@ frame_needed = 1, uses_anonymous_args = 0
 5187 2048 0DC0A0E1 		mov	ip, sp
 5188              	.LCFI28:
 5189              		.cfi_def_cfa_register 12
 5190 204c 00D82DE9 		stmfd	sp!, {fp, ip, lr, pc}
 5191 2050 04B04CE2 		sub	fp, ip, #4
 5192              		.cfi_offset 14, -8
 5193              		.cfi_offset 13, -12
 5194              		.cfi_offset 11, -16
 5195              	.LCFI29:
 5196              		.cfi_def_cfa 11, 4
 763:../proyecto.c **** 
 764:../proyecto.c **** 	if(tsPressedMsg.x > LCD_WIDTH/2-80 && tsPressedMsg.x < LCD_WIDTH/2+80 && tsPressedMsg.y > LCD_HEIG
 5197              		.loc 1 764 0
 5198 2054 5C309FE5 		ldr	r3, .L183
 5199 2058 B230D3E1 		ldrh	r3, [r3, #2]
 5200 205c 500053E3 		cmp	r3, #80
 5201 2060 0D00009A 		bls	.L181
 5202              		.loc 1 764 0 is_stmt 0 discriminator 1
 5203 2064 4C309FE5 		ldr	r3, .L183
 5204 2068 B230D3E1 		ldrh	r3, [r3, #2]
 5205 206c EF0053E3 		cmp	r3, #239
 5206 2070 0900008A 		bhi	.L181
 5207 2074 3C309FE5 		ldr	r3, .L183
 5208 2078 B430D3E1 		ldrh	r3, [r3, #4]
 5209 207c B00053E3 		cmp	r3, #176
 5210 2080 0500009A 		bls	.L181
 5211 2084 2C309FE5 		ldr	r3, .L183
 5212 2088 B430D3E1 		ldrh	r3, [r3, #4]
 5213 208c DF0053E3 		cmp	r3, #223
 5214 2090 0100008A 		bhi	.L181
 765:../proyecto.c **** 		return 1;
 5215              		.loc 1 765 0 is_stmt 1
 5216 2094 0130A0E3 		mov	r3, #1
 5217 2098 000000EA 		b	.L182
 5218              	.L181:
 766:../proyecto.c **** 	return 0;
 5219              		.loc 1 766 0
 5220 209c 0030A0E3 		mov	r3, #0
 5221              	.L182:
 5222 20a0 033CA0E1 		mov	r3, r3, asl #24
 5223 20a4 433CA0E1 		mov	r3, r3, asr #24
 767:../proyecto.c **** }
 5224              		.loc 1 767 0
 5225 20a8 0300A0E1 		mov	r0, r3
 5226 20ac 0CD04BE2 		sub	sp, fp, #12
 5227 20b0 00689DE8 		ldmfd	sp, {fp, sp, lr}
 5228 20b4 1EFF2FE1 		bx	lr
 5229              	.L184:
 5230              		.align	2
 5231              	.L183:
 5232 20b8 00000000 		.word	tsPressedMsg
 5233              		.cfi_endproc
 5234              	.LFE14:
 5236              		.bss
 5237              	licPlatePoint.4465:
 5238 0000 00       		.space	1
 5239              		.data
 5242              	init.4424:
 5243 0000 01       		.byte	1
 5244              		.bss
 5245              	state.4428:
 5246 0001 00       		.space	1
 5247 0002 0000     		.align	2
 5248              	ticks.4429:
 5249 0004 00000000 		.space	4
 5250              		.data
 5253              	init.4404:
 5254 0001 01       		.byte	1
 5255              		.bss
 5256              	state.4410:
 5257 0008 00       		.space	1
 5258              		.data
 5261              	init.4391:
 5262 0002 01       		.byte	1
 5263              		.bss
 5264              	state.4396:
 5265 0009 00       		.space	1
 5266              		.data
 5269              	init.4361:
 5270 0003 01       		.byte	1
 5271              		.bss
 5272              	placeSelected.4364:
 5273 000a 00       		.space	1
 5274              	state.4366:
 5275 000b 00       		.space	1
 5276              		.align	1
 5277              	ticks.4362:
 5278 000c 0000     		.space	2
 5279              	prevState.4367:
 5280 000e 00       		.space	1
 5281 000f 00       		.align	2
 5282              	og_deadline.4365:
 5283 0010 00000000 		.space	7
 5283      000000
 5284 0017 00       		.align	1
 5285              	licPlateComp.4363:
 5286 0018 0000     		.space	2
 5287 001a 0000     		.text
 5288              	.Letext0:
DEFINED SYMBOLS
                            *ABS*:00000000 proyecto.c
                            *COM*:00000080 parking
                            *COM*:00000004 kpPressedMsg
                            *COM*:00000006 tsPressedMsg
                            *COM*:00000002 coinsMoverMsg
                            *COM*:00000012 ticketMsg
C:\Users\guill\AppData\Local\Temp\ccvIu6rg.s:2205   .text:00000000 $a
C:\Users\guill\AppData\Local\Temp\ccvIu6rg.s:2208   .text:00000000 main
C:\Users\guill\AppData\Local\Temp\ccvIu6rg.s:4528   .text:000019e0 setup
C:\Users\guill\AppData\Local\Temp\ccvIu6rg.s:2289   .text:000000a0 $d
C:\Users\guill\AppData\Local\Temp\ccvIu6rg.s:3890   .text:000013a0 tsScanTask
C:\Users\guill\AppData\Local\Temp\ccvIu6rg.s:4013   .text:000014c0 kpScanTask
C:\Users\guill\AppData\Local\Temp\ccvIu6rg.s:2302   .text:000000bc mainTask
C:\Users\guill\AppData\Local\Temp\ccvIu6rg.s:4201   .text:00001684 coinsMoverTask
C:\Users\guill\AppData\Local\Temp\ccvIu6rg.s:3861   .text:00001384 clockTask
C:\Users\guill\AppData\Local\Temp\ccvIu6rg.s:3788   .text:000012dc ticketPrinterTask
C:\Users\guill\AppData\Local\Temp\ccvIu6rg.s:2299   .text:000000bc $a
C:\Users\guill\AppData\Local\Temp\ccvIu6rg.s:2410   .text:000001e0 $d
C:\Users\guill\AppData\Local\Temp\ccvIu6rg.s:2420   .text:00000200 $a
C:\Users\guill\AppData\Local\Temp\ccvIu6rg.s:4602   .text:00001a80 plotState
C:\Users\guill\AppData\Local\Temp\ccvIu6rg.s:5061   .text:00001f10 changeLang
C:\Users\guill\AppData\Local\Temp\ccvIu6rg.s:4331   .text:000017b4 selectorTask
C:\Users\guill\AppData\Local\Temp\ccvIu6rg.s:4794   .text:00001c28 updateDeadline
C:\Users\guill\AppData\Local\Temp\ccvIu6rg.s:4962   .text:00001e1c getLicPlate
C:\Users\guill\AppData\Local\Temp\ccvIu6rg.s:3408   .text:00000e58 $d
C:\Users\guill\AppData\Local\Temp\ccvIu6rg.s:5269   .data:00000003 init.4361
C:\Users\guill\AppData\Local\Temp\ccvIu6rg.s:5282   .bss:00000010 og_deadline.4365
C:\Users\guill\AppData\Local\Temp\ccvIu6rg.s:5285   .bss:00000018 licPlateComp.4363
C:\Users\guill\AppData\Local\Temp\ccvIu6rg.s:5272   .bss:0000000a placeSelected.4364
C:\Users\guill\AppData\Local\Temp\ccvIu6rg.s:5277   .bss:0000000c ticks.4362
C:\Users\guill\AppData\Local\Temp\ccvIu6rg.s:5279   .bss:0000000e prevState.4367
C:\Users\guill\AppData\Local\Temp\ccvIu6rg.s:5274   .bss:0000000b state.4366
C:\Users\guill\AppData\Local\Temp\ccvIu6rg.s:3422   .text:00000e88 $a
C:\Users\guill\AppData\Local\Temp\ccvIu6rg.s:5180   .text:00002048 exitSol
C:\Users\guill\AppData\Local\Temp\ccvIu6rg.s:3854   .text:00001380 $d
C:\Users\guill\AppData\Local\Temp\ccvIu6rg.s:3858   .text:00001384 $a
C:\Users\guill\AppData\Local\Temp\ccvIu6rg.s:4001   .text:000014a8 $d
C:\Users\guill\AppData\Local\Temp\ccvIu6rg.s:5261   .data:00000002 init.4391
C:\Users\guill\AppData\Local\Temp\ccvIu6rg.s:5264   .bss:00000009 state.4396
C:\Users\guill\AppData\Local\Temp\ccvIu6rg.s:4010   .text:000014c0 $a
C:\Users\guill\AppData\Local\Temp\ccvIu6rg.s:4052   .text:0000150c $d
C:\Users\guill\AppData\Local\Temp\ccvIu6rg.s:4058   .text:0000151c $a
C:\Users\guill\AppData\Local\Temp\ccvIu6rg.s:4093   .text:00001580 $d
C:\Users\guill\AppData\Local\Temp\ccvIu6rg.s:4099   .text:00001590 $a
C:\Users\guill\AppData\Local\Temp\ccvIu6rg.s:4192   .text:00001678 $d
C:\Users\guill\AppData\Local\Temp\ccvIu6rg.s:5253   .data:00000001 init.4404
C:\Users\guill\AppData\Local\Temp\ccvIu6rg.s:5256   .bss:00000008 state.4410
C:\Users\guill\AppData\Local\Temp\ccvIu6rg.s:4198   .text:00001684 $a
C:\Users\guill\AppData\Local\Temp\ccvIu6rg.s:4321   .text:000017a4 $d
C:\Users\guill\AppData\Local\Temp\ccvIu6rg.s:5242   .data:00000000 init.4424
C:\Users\guill\AppData\Local\Temp\ccvIu6rg.s:5245   .bss:00000001 state.4428
C:\Users\guill\AppData\Local\Temp\ccvIu6rg.s:5248   .bss:00000004 ticks.4429
C:\Users\guill\AppData\Local\Temp\ccvIu6rg.s:4328   .text:000017b4 $a
C:\Users\guill\AppData\Local\Temp\ccvIu6rg.s:4521   .text:000019dc $d
C:\Users\guill\AppData\Local\Temp\ccvIu6rg.s:4525   .text:000019e0 $a
C:\Users\guill\AppData\Local\Temp\ccvIu6rg.s:4592   .text:00001a70 $d
C:\Users\guill\AppData\Local\Temp\ccvIu6rg.s:4599   .text:00001a80 $a
C:\Users\guill\AppData\Local\Temp\ccvIu6rg.s:4630   .text:00001ab0 $d
C:\Users\guill\AppData\Local\Temp\ccvIu6rg.s:4640   .text:00001ad0 $a
C:\Users\guill\AppData\Local\Temp\ccvIu6rg.s:4716   .text:00001b94 $d
C:\Users\guill\AppData\Local\Temp\ccvIu6rg.s:4720   .text:00001b98 $a
C:\Users\guill\AppData\Local\Temp\ccvIu6rg.s:4723   .text:00001b98 getMonthdays
C:\Users\guill\AppData\Local\Temp\ccvIu6rg.s:4954   .text:00001e14 $d
C:\Users\guill\AppData\Local\Temp\ccvIu6rg.s:4959   .text:00001e1c $a
C:\Users\guill\AppData\Local\Temp\ccvIu6rg.s:5053   .text:00001f08 $d
C:\Users\guill\AppData\Local\Temp\ccvIu6rg.s:5237   .bss:00000000 licPlatePoint.4465
C:\Users\guill\AppData\Local\Temp\ccvIu6rg.s:5058   .text:00001f10 $a
C:\Users\guill\AppData\Local\Temp\ccvIu6rg.s:5172   .text:00002040 $d
C:\Users\guill\AppData\Local\Temp\ccvIu6rg.s:5177   .text:00002048 $a
C:\Users\guill\AppData\Local\Temp\ccvIu6rg.s:5232   .text:000020b8 $d
C:\Users\guill\AppData\Local\Temp\ccvIu6rg.s:5238   .bss:00000000 $d
                     .debug_frame:00000010 $d

UNDEFINED SYMBOLS
sys_init
leds_init
segs_init
uart0_init
rtc_init
timers_init
keypad_init
lcd_init
ts_init
lcd_on
ts_on
scheduler_init
create_task
timer0_open_tick
sleep
dispacher
scheduler
init_screen_mens
plotWelcomeScreen
rtc_gettime
memcpy
plotSelEnc
plotLangSelScreen
plotExcessReturn
plotPayCredit
plotPayDeadline
plotLicPlateUpdate
plotLicPlateEnc
plotExitSuccess
makeTicket
plotTime
ts_pressed
ts_getpos
keypad_pressed
keypad_scan
segs_putchar
led_on
segs_off
led_off
plotSelectionScreen
plotPaymentScreen
plotLicPlateScreen
plotSucScreen
plotErrorScreen
plotLicPlateDemand
changeScreenLang
